C51 COMPILER V9.57.0.0   FINGERPRINT                                                       02/19/2022 23:37:21 PAGE 1   


C51 COMPILER V9.57.0.0, COMPILATION OF MODULE FINGERPRINT
OBJECT MODULE PLACED IN .\build\Target 1\__\APP\Fingerprint\Fingerprint.o
COMPILER INVOKED BY: D:\keil5\C51\BIN\C51.exe .\..\APP\FINGERPRINT\FINGERPRINT.C PRINT(.\build\Target 1\__\APP\Fingerpri
                    -nt\Fingerprint.lst) OMF2 TABS(4) CODE NOCOND SYMBOLS OPTIMIZE(8,SPEED) SMALL ROM(LARGE) INCDIR(D:\keil5\C51\INC\Atmel;.\
                    -..\APP;.\..;.\..\APP\ADC;.\..\APP\Eeprom;.\..\APP\Fingerprint;.\..\APP\System;.\..\APP\Uart;.\..\APP\WIFI;.\..\APP\LCD;.
                    -\..\APP\SPI;.\..\APP\GUI;.\..\APP\Time;.\..\APP\H;D:\keil5\C51\INC) DEFINE(__UVISION_VERSION=526) OBJECT(.\build\Target 
                    -1\__\APP\Fingerprint\Fingerprint.o)

line level    source

   1          #include "Fingerprint.h"
   2          #include "FingerprintError.h"
   3          
   4          Finger xdata Finger1;            //ÂÆû‰æãÂåñÊåáÁ∫πÂØπË±°
   5          Uart *uart = UartCall(UartPort); //Ëé∑ÂèñÁ´ØÂè£Âè∑
   6          
   7          void fingerPower(uchar power)
   8          {
   9   1          fingerpower = power;
  10   1      }
  11          
  12          void FingerUart(uchar num[])
  13          {
  14   1          uchar i;
  15   1          for (i = 0; i < sizeof(num); i++)
  16   1          {
  17   2              uart->UartWriteChar(uart, num[i]);
  18   2          }
  19   1      }
  20          
  21          void FingerInstruction(uchar nums[])
  22          {
  23   1          FingerUart(fingerprintHead); //ÂèëÈÄÅÂåÖÂ§¥
  24   1          FingerUart(fingerprintAddr); //ÂèëÈÄÅÊåáÁ∫πÊ®°ÂùóÂú∞ÂùÄ
  25   1          FingerUart(nums);            //ÂèëÈÄÅÊåá‰ª§
  26   1          FingerUart(fingerprintSum);  //ÂèëÈÄÅÊ†°È™åÂíå
  27   1      }
  28          
  29          void fingerError(uchar errors)
  30          {
  31   1          uchar i;
  32   1          for (i = 0; i < 25; i++) //ÈÅçÂéÜÈîôËØØ‰ø°ÊÅØÁªÑ
  33   1          {
  34   2              if (FringeErrors[i]._ErrorId == errors) //Êü•ÊâæÂØπÂ∫îÈîôËØØ‰ø°ÊÅØ
  35   2              {
  36   3                  //ÂêëÂ±èÂπïËæìÂá∫ÈîôËØØ‰ø°ÊÅØ
  37   3                  return;
  38   3              }
  39   2          }
  40   1          //Á®ãÂ∫èÊâßË°åÂà∞Ê≠§Â§ÑË°®Á§∫ÈîôËØØ‰ø°ÊÅØÂú®ÂàóË°®‰∏≠Êú™Êü•ÊâæÂà∞ÔºåÊ≠§Êó∂Â∫îËæìÂá∫"Êú™Áü•ÈîôËØØ"ÊèêÁ§
             -∫!
  41   1      }
  42          
  43          uchar fingerRegistered()
  44          {
  45   1          uchar xdata num[sizeof(fingerprintRegister)]; //ÂÆö‰πâ‰∏éÊåáÁ∫πÊ≥®ÂÜåÂëΩ‰ª§‰∏≤Áõ∏ÂêåÈïøÂ∫¶ÁöÑÊï∞ÁªÑ
  46   1          switch (Finger1._fingerSwitch)
  47   1          {
  48   2          case 0:
  49   2              numberscopy(num, fingerprintRegister, sizeof(fingerprintRegister)); //Â§çÂà∂ÂëΩ‰ª§‰∏≤
  50   2              num[5] = Finger1._fingerId;                                         //Ëé∑ÂèñÂΩìÂâçÊåáÁ∫πÊ®°ÂùóÁöÑÂ
C51 COMPILER V9.57.0.0   FINGERPRINT                                                       02/19/2022 23:37:21 PAGE 2   

             -ÖÅËÆ∏Â≠òÂÇ®ID
  51   2              FingerInstruction(num);                                             //ÂèëÈÄÅÊ≥®ÂÜåÂëΩ‰ª§
  52   2              Finger1._fingerSwitch = 1;                                          //Áä∂ÊÄÅÊú∫Áä∂ÊÄÅÊõ¥Êñ∞
  53   2              break;
  54   2          case 1:
  55   2              while (uart->_uartRead[10] != 0x03)
  56   2              {
  57   3                  if (uart->_readFlag)
  58   3                  {
  59   4                      uart->_readFlag = 0;
  60   4                      if (uart->_uartRead[10] == 0x02)
  61   4                          ; //ËæìÂá∫ËØ∑ÈáçÊåâÊèêÁ§∫
  62   4                  }
  63   3              }
  64   2              if (uart->_uartRead[9] == 0x00)
  65   2                  Finger1._fingerSwitch = 2;
  66   2              else
  67   2                  fingerError(uart->_uartRead[9]); //Ê±áÊä•ÈîôËØØ‰ø°ÊÅØ
  68   2      
  69   2              break;
  70   2          case 2:
  71   2              /*  if ()
  72   2              {
  73   2              } */
  74   2              break;
  75   2          }
  76   1          return 0;
  77   1      }
  78          
  79          /* uchar fingerPairing()
  80          {
  81              ;
  82          }
  83          
  84          uchar fingerNumber()
  85          {
  86              ;
  87          } */
C51 COMPILER V9.57.0.0   FINGERPRINT                                                       02/19/2022 23:37:21 PAGE 3   

ASSEMBLY LISTING OF GENERATED OBJECT CODE


             ; FUNCTION _fingerPower (BEGIN)
                                           ; SOURCE LINE # 7
;---- Variable 'power' assigned to Register 'R7' ----
                                           ; SOURCE LINE # 8
                                           ; SOURCE LINE # 9
0000 EF                MOV     A,R7
0001 24FF              ADD     A,#0FFH
0003 92C4              MOV     fingerpower,C
                                           ; SOURCE LINE # 10
0005 22                RET     
             ; FUNCTION _fingerPower (END)

             ; FUNCTION _FingerUart (BEGIN)
                                           ; SOURCE LINE # 12
0000 8B00        R     MOV     num,R3
0002 8A00        R     MOV     num+01H,R2
0004 8900        R     MOV     num+02H,R1
                                           ; SOURCE LINE # 13
                                           ; SOURCE LINE # 15
0006 E4                CLR     A
0007 F500        R     MOV     i,A
0009         ?C0002:
                                           ; SOURCE LINE # 16
                                           ; SOURCE LINE # 17
0009 AB00        R     MOV     R3,uart
000B AA00        R     MOV     R2,uart+01H
000D A900        R     MOV     R1,uart+02H
000F C003              PUSH    AR3
0011 C002              PUSH    AR2
0013 C001              PUSH    AR1
0015 AB00        R     MOV     R3,num
0017 AA00        R     MOV     R2,num+01H
0019 A900        R     MOV     R1,num+02H
001B 850082      R     MOV     DPL,i
001E 758300            MOV     DPH,#00H
0021 120000      E     LCALL   ?C?CLDOPTR
0024 FD                MOV     R5,A
0025 AB00        R     MOV     R3,uart
0027 AA00        R     MOV     R2,uart+01H
0029 A900        R     MOV     R1,uart+02H
002B 90004B            MOV     DPTR,#04BH
002E 120000      E     LCALL   ?C?PLDOPTR
0031 8982              MOV     DPL,R1
0033 8A83              MOV     DPH,R2
0035 D001              POP     AR1
0037 D002              POP     AR2
0039 D003              POP     AR3
003B 120000      E     LCALL   ?C?ICALL2
                                           ; SOURCE LINE # 18
003E 0500        R     INC     i
0040 E500        R     MOV     A,i
0042 C3                CLR     C
0043 9403              SUBB    A,#03H
0045 40C2              JC      ?C0002
                                           ; SOURCE LINE # 19
0047         ?C0005:
0047 22                RET     
             ; FUNCTION _FingerUart (END)

C51 COMPILER V9.57.0.0   FINGERPRINT                                                       02/19/2022 23:37:21 PAGE 4   

             ; FUNCTION _FingerInstruction (BEGIN)
                                           ; SOURCE LINE # 21
0000 8B00        R     MOV     nums,R3
0002 8A00        R     MOV     nums+01H,R2
0004 8900        R     MOV     nums+02H,R1
                                           ; SOURCE LINE # 22
                                           ; SOURCE LINE # 23
0006 7BFF              MOV     R3,#0FFH
0008 7A00        R     MOV     R2,#HIGH fingerprintHead
000A 7900        R     MOV     R1,#LOW fingerprintHead
000C 120000      R     LCALL   _FingerUart
                                           ; SOURCE LINE # 24
000F 7BFF              MOV     R3,#0FFH
0011 7A00        R     MOV     R2,#HIGH fingerprintAddr
0013 7900        R     MOV     R1,#LOW fingerprintAddr
0015 120000      R     LCALL   _FingerUart
                                           ; SOURCE LINE # 25
0018 AB00        R     MOV     R3,nums
001A AA00        R     MOV     R2,nums+01H
001C A900        R     MOV     R1,nums+02H
001E 120000      R     LCALL   _FingerUart
                                           ; SOURCE LINE # 26
0021 7BFF              MOV     R3,#0FFH
0023 7A00        R     MOV     R2,#HIGH fingerprintSum
0025 7900        R     MOV     R1,#LOW fingerprintSum
0027 020000      R     LJMP    _FingerUart
             ; FUNCTION _FingerInstruction (END)

             ; FUNCTION _fingerError (BEGIN)
                                           ; SOURCE LINE # 29
;---- Variable 'errors' assigned to Register 'R7' ----
                                           ; SOURCE LINE # 30
                                           ; SOURCE LINE # 32
;---- Variable 'i' assigned to Register 'R6' ----
0000 E4                CLR     A
0001 FE                MOV     R6,A
0002         ?C0007:
                                           ; SOURCE LINE # 33
                                           ; SOURCE LINE # 34
0002 EE                MOV     A,R6
0003 25E0              ADD     A,ACC
0005 25E0              ADD     A,ACC
0007 2400        R     ADD     A,#LOW FringeErrors
0009 F8                MOV     R0,A
000A E6                MOV     A,@R0
000B 6F                XRL     A,R7
000C 6004              JZ      ?C0011
                                           ; SOURCE LINE # 35
                                           ; SOURCE LINE # 38
                                           ; SOURCE LINE # 39
000E 0E                INC     R6
000F BE19F0            CJNE    R6,#019H,?C0007
                                           ; SOURCE LINE # 41
0012         ?C0011:
0012 22                RET     
             ; FUNCTION _fingerError (END)

             ; FUNCTION fingerRegistered (BEGIN)
                                           ; SOURCE LINE # 43
                                           ; SOURCE LINE # 44
                                           ; SOURCE LINE # 46
0000 900000      R     MOV     DPTR,#Finger1+01H
C51 COMPILER V9.57.0.0   FINGERPRINT                                                       02/19/2022 23:37:21 PAGE 5   

0003 E0                MOVX    A,@DPTR
0004 14                DEC     A
0005 6031              JZ      ?C0015
0007 04                INC     A
0008 706C              JNZ     ?C0012
                                           ; SOURCE LINE # 47
                                           ; SOURCE LINE # 48
000A         ?C0013:
                                           ; SOURCE LINE # 49
000A 7500FF      E     MOV     ?_numberscopy?BYTE+03H,#0FFH
000D 750000      R     MOV     ?_numberscopy?BYTE+04H,#HIGH fingerprintRegister
0010 750000      R     MOV     ?_numberscopy?BYTE+05H,#LOW fingerprintRegister
0013 750008      E     MOV     ?_numberscopy?BYTE+06H,#08H
0016 7B01              MOV     R3,#01H
0018 7A00        R     MOV     R2,#HIGH num
001A 7900        R     MOV     R1,#LOW num
001C 120000      E     LCALL   _numberscopy
                                           ; SOURCE LINE # 50
001F 900000      R     MOV     DPTR,#Finger1
0022 E0                MOVX    A,@DPTR
0023 900000      R     MOV     DPTR,#num+05H
0026 F0                MOVX    @DPTR,A
                                           ; SOURCE LINE # 51
0027 7B01              MOV     R3,#01H
0029 7A00        R     MOV     R2,#HIGH num
002B 7900        R     MOV     R1,#LOW num
002D 120000      R     LCALL   _FingerInstruction
                                           ; SOURCE LINE # 52
0030 900000      R     MOV     DPTR,#Finger1+01H
0033 7401              MOV     A,#01H
0035 F0                MOVX    @DPTR,A
                                           ; SOURCE LINE # 53
0036 803E              SJMP    ?C0012
                                           ; SOURCE LINE # 54
0038         ?C0015:
                                           ; SOURCE LINE # 55
0038 AB00        R     MOV     R3,uart
003A AA00        R     MOV     R2,uart+01H
003C A900        R     MOV     R1,uart+02H
003E 90001B            MOV     DPTR,#01BH
0041 120000      E     LCALL   ?C?CLDOPTR
0044 6403              XRL     A,#03H
0046 601A              JZ      ?C0016
                                           ; SOURCE LINE # 56
                                           ; SOURCE LINE # 57
0048 900043            MOV     DPTR,#043H
004B 120000      E     LCALL   ?C?CLDOPTR
004E 60E8              JZ      ?C0015
                                           ; SOURCE LINE # 58
                                           ; SOURCE LINE # 59
0050 900043            MOV     DPTR,#043H
0053 E4                CLR     A
0054 120000      E     LCALL   ?C?CSTOPTR
                                           ; SOURCE LINE # 60
0057 90001B            MOV     DPTR,#01BH
005A 120000      E     LCALL   ?C?CLDOPTR
005D B402D8            CJNE    A,#02H,?C0015
                                           ; SOURCE LINE # 62
                                           ; SOURCE LINE # 63
0060 80D6              SJMP    ?C0015
0062         ?C0016:
                                           ; SOURCE LINE # 64
C51 COMPILER V9.57.0.0   FINGERPRINT                                                       02/19/2022 23:37:21 PAGE 6   

0062 90001A            MOV     DPTR,#01AH
0065 120000      E     LCALL   ?C?CLDOPTR
0068 FF                MOV     R7,A
0069 7008              JNZ     ?C0019
                                           ; SOURCE LINE # 65
006B 900000      R     MOV     DPTR,#Finger1+01H
006E 7402              MOV     A,#02H
0070 F0                MOVX    @DPTR,A
0071 8003              SJMP    ?C0012
0073         ?C0019:
                                           ; SOURCE LINE # 67
0073 120000      R     LCALL   _fingerError
                                           ; SOURCE LINE # 69
                                           ; SOURCE LINE # 70
                                           ; SOURCE LINE # 74
                                           ; SOURCE LINE # 75
0076         ?C0012:
                                           ; SOURCE LINE # 76
0076 7F00              MOV     R7,#00H
                                           ; SOURCE LINE # 77
0078 22                RET     
             ; FUNCTION fingerRegistered (END)

C51 COMPILER V9.57.0.0   FINGERPRINT                                                       02/19/2022 23:37:21 PAGE 7   

NAME                                    CLASS   MSPACE  TYPE    OFFSET  SIZE
====                                    =====   ======  ====    ======  ====


P0M1 . . . . . . . . . . . . . . . . .  SFR      DATA   U_CHAR   0093H  1
P1M0 . . . . . . . . . . . . . . . . .  SFR      DATA   U_CHAR   0092H  1
fingerprintPairing . . . . . . . . . .  PUBLIC   CODE   ARRAY    00FCH  9
P2M0 . . . . . . . . . . . . . . . . .  SFR      DATA   U_CHAR   0096H  1
P1M1 . . . . . . . . . . . . . . . . .  SFR      DATA   U_CHAR   0091H  1
P0 . . . . . . . . . . . . . . . . . .  SFR      DATA   U_CHAR   0080H  1
fingerprintIdentity. . . . . . . . . .  PUBLIC   CODE   ARRAY    0125H  5
P3M0 . . . . . . . . . . . . . . . . .  SFR      DATA   U_CHAR   00B2H  1
P2M1 . . . . . . . . . . . . . . . . .  SFR      DATA   U_CHAR   0095H  1
P1 . . . . . . . . . . . . . . . . . .  SFR      DATA   U_CHAR   0090H  1
P4M0 . . . . . . . . . . . . . . . . .  SFR      DATA   U_CHAR   00B4H  1
P3M1 . . . . . . . . . . . . . . . . .  SFR      DATA   U_CHAR   00B1H  1
P2 . . . . . . . . . . . . . . . . . .  SFR      DATA   U_CHAR   00A0H  1
P5M0 . . . . . . . . . . . . . . . . .  SFR      DATA   U_CHAR   00CAH  1
P4M1 . . . . . . . . . . . . . . . . .  SFR      DATA   U_CHAR   00B3H  1
P3 . . . . . . . . . . . . . . . . . .  SFR      DATA   U_CHAR   00B0H  1
WKTCH. . . . . . . . . . . . . . . . .  SFR      DATA   U_CHAR   00ABH  1
AC . . . . . . . . . . . . . . . . . .  ABSBIT   -----  BIT      00D6H  1
P6M0 . . . . . . . . . . . . . . . . .  SFR      DATA   U_CHAR   00CCH  1
P5M1 . . . . . . . . . . . . . . . . .  SFR      DATA   U_CHAR   00C9H  1
P4 . . . . . . . . . . . . . . . . . .  SFR      DATA   U_CHAR   00C0H  1
P7M0 . . . . . . . . . . . . . . . . .  SFR      DATA   U_CHAR   00E2H  1
P6M1 . . . . . . . . . . . . . . . . .  SFR      DATA   U_CHAR   00CBH  1
P5 . . . . . . . . . . . . . . . . . .  SFR      DATA   U_CHAR   00C8H  1
P6 . . . . . . . . . . . . . . . . . .  SFR      DATA   U_CHAR   00E8H  1
P7M1 . . . . . . . . . . . . . . . . .  SFR      DATA   U_CHAR   00E1H  1
EA . . . . . . . . . . . . . . . . . .  ABSBIT   -----  BIT      00AFH  1
P7 . . . . . . . . . . . . . . . . . .  SFR      DATA   U_CHAR   00F8H  1
WKTCL. . . . . . . . . . . . . . . . .  SFR      DATA   U_CHAR   00AAH  1
fingerprintDelete. . . . . . . . . . .  PUBLIC   CODE   ARRAY    0111H  4
SPCTL. . . . . . . . . . . . . . . . .  SFR      DATA   U_CHAR   00CEH  1
_FingerInstruction . . . . . . . . . .  PUBLIC   CODE   PROC     0000H  -----
  nums . . . . . . . . . . . . . . . .  AUTO     DATA   PTR      0000H  3
P_SW1. . . . . . . . . . . . . . . . .  SFR      DATA   U_CHAR   00A2H  1
_fingerError . . . . . . . . . . . . .  PUBLIC   CODE   PROC     0000H  -----
  errors . . . . . . . . . . . . . . .  * REG *  DATA   U_CHAR   0007H  1
  i. . . . . . . . . . . . . . . . . .  * REG *  DATA   U_CHAR   0006H  1
P_SW2. . . . . . . . . . . . . . . . .  SFR      DATA   U_CHAR   00BAH  1
DPH1 . . . . . . . . . . . . . . . . .  SFR      DATA   U_CHAR   00E5H  1
EADC . . . . . . . . . . . . . . . . .  ABSBIT   -----  BIT      00ADH  1
IE . . . . . . . . . . . . . . . . . .  SFR      DATA   U_CHAR   00A8H  1
Finger1. . . . . . . . . . . . . . . .  PUBLIC   XDATA  STRUCT   0000H  32
_fingerPower . . . . . . . . . . . . .  PUBLIC   CODE   PROC     0000H  -----
  power. . . . . . . . . . . . . . . .  * REG *  DATA   U_CHAR   0007H  1
IAP_CMD. . . . . . . . . . . . . . . .  SFR      DATA   U_CHAR   00C5H  1
fingerprintCheck . . . . . . . . . . .  PUBLIC   CODE   ARRAY    011DH  4
size_t . . . . . . . . . . . . . . . .  TYPEDEF  -----  U_INT    -----  2
DPL1 . . . . . . . . . . . . . . . . .  SFR      DATA   U_CHAR   00E4H  1
ADC_RES. . . . . . . . . . . . . . . .  SFR      DATA   U_CHAR   00BDH  1
IP2H . . . . . . . . . . . . . . . . .  SFR      DATA   U_CHAR   00B6H  1
fingerRegistered . . . . . . . . . . .  PUBLIC   CODE   PROC     0000H  -----
  num. . . . . . . . . . . . . . . . .  AUTO     XDATA  ARRAY    0000H  8
IP3H . . . . . . . . . . . . . . . . .  SFR      DATA   U_CHAR   00EEH  1
TA . . . . . . . . . . . . . . . . . .  SFR      DATA   U_CHAR   00AEH  1
uchar. . . . . . . . . . . . . . . . .  TYPEDEF  -----  U_CHAR   -----  1
INTCLKO. . . . . . . . . . . . . . . .  SFR      DATA   U_CHAR   008FH  1
ES . . . . . . . . . . . . . . . . . .  ABSBIT   -----  BIT      00ACH  1
C51 COMPILER V9.57.0.0   FINGERPRINT                                                       02/19/2022 23:37:21 PAGE 8   

NAME                                    CLASS   MSPACE  TYPE    OFFSET  SIZE
====                                    =====   ======  ====    ======  ====


PADC . . . . . . . . . . . . . . . . .  ABSBIT   -----  BIT      00BDH  1
IP . . . . . . . . . . . . . . . . . .  SFR      DATA   U_CHAR   00B8H  1
ADCCFG . . . . . . . . . . . . . . . .  SFR      DATA   U_CHAR   00DEH  1
RI . . . . . . . . . . . . . . . . . .  ABSBIT   -----  BIT      0098H  1
CY . . . . . . . . . . . . . . . . . .  ABSBIT   -----  BIT      00D7H  1
TI . . . . . . . . . . . . . . . . . .  ABSBIT   -----  BIT      0099H  1
fingerprintNumber. . . . . . . . . . .  PUBLIC   CODE   ARRAY    010DH  4
Uart . . . . . . . . . . . . . . . . .  TYPEDEF  -----  STRUCT   -----  90
  _uartId. . . . . . . . . . . . . . .  MEMBER   -----  U_CHAR   0000H  1
  _uartWrite . . . . . . . . . . . . .  MEMBER   -----  ARRAY    0001H  16
  _uartRead. . . . . . . . . . . . . .  MEMBER   -----  ARRAY    0011H  48
  _uartSign. . . . . . . . . . . . . .  MEMBER   -----  U_CHAR   0041H  1
  _uartStart . . . . . . . . . . . . .  MEMBER   -----  U_CHAR   0042H  1
  _readFlag. . . . . . . . . . . . . .  MEMBER   -----  U_CHAR   0043H  1
  _uartTime. . . . . . . . . . . . . .  MEMBER   -----  U_INT    0044H  2
  busy . . . . . . . . . . . . . . . .  MEMBER   -----  U_CHAR   0046H  1
  _baudRate. . . . . . . . . . . . . .  MEMBER   -----  U_LONG   0047H  4
  UartWriteChar. . . . . . . . . . . .  MEMBER   -----  PTR      004BH  3
  UartWriteString. . . . . . . . . . .  MEMBER   -----  PTR      004EH  3
  UartWriteBuffe . . . . . . . . . . .  MEMBER   -----  PTR      0051H  3
  UartRead . . . . . . . . . . . . . .  MEMBER   -----  PTR      0054H  3
  UartReadTime . . . . . . . . . . . .  MEMBER   -----  PTR      0057H  3
IAP_ADDRH. . . . . . . . . . . . . . .  SFR      DATA   U_CHAR   00C3H  1
fingerprintRemove. . . . . . . . . . .  PUBLIC   CODE   ARRAY    0105H  8
PS . . . . . . . . . . . . . . . . . .  ABSBIT   -----  BIT      00BCH  1
SP . . . . . . . . . . . . . . . . . .  SFR      DATA   U_CHAR   0081H  1
IAP_ADDRL. . . . . . . . . . . . . . .  SFR      DATA   U_CHAR   00C4H  1
fingerprintHead. . . . . . . . . . . .  PUBLIC   CODE   ARRAY    00ECH  2
OV . . . . . . . . . . . . . . . . . .  ABSBIT   -----  BIT      00D2H  1
PPCA . . . . . . . . . . . . . . . . .  ABSBIT   -----  BIT      00BFH  1
fingertouch. . . . . . . . . . . . . .  ABSBIT   -----  BIT      00B6H  1
LIRTRIM. . . . . . . . . . . . . . . .  SFR      DATA   U_CHAR   009EH  1
CMPCR1 . . . . . . . . . . . . . . . .  SFR      DATA   U_CHAR   00E6H  1
ulong. . . . . . . . . . . . . . . . .  TYPEDEF  -----  U_LONG   -----  4
CMPCR2 . . . . . . . . . . . . . . . .  SFR      DATA   U_CHAR   00E7H  1
ushort . . . . . . . . . . . . . . . .  TYPEDEF  -----  U_INT    -----  2
ELVD . . . . . . . . . . . . . . . . .  ABSBIT   -----  BIT      00AEH  1
u8 . . . . . . . . . . . . . . . . . .  TYPEDEF  -----  U_CHAR   -----  1
fingerprintAddr. . . . . . . . . . . .  PUBLIC   CODE   ARRAY    00EEH  4
fingerpower. . . . . . . . . . . . . .  ABSBIT   -----  BIT      00C4H  1
P00. . . . . . . . . . . . . . . . . .  ABSBIT   -----  BIT      0080H  1
ADC_CONTR. . . . . . . . . . . . . . .  SFR      DATA   U_CHAR   00BCH  1
SBUF . . . . . . . . . . . . . . . . .  SFR      DATA   U_CHAR   0099H  1
P10. . . . . . . . . . . . . . . . . .  ABSBIT   -----  BIT      0090H  1
PCON . . . . . . . . . . . . . . . . .  SFR      DATA   U_CHAR   0087H  1
P01. . . . . . . . . . . . . . . . . .  ABSBIT   -----  BIT      0081H  1
P20. . . . . . . . . . . . . . . . . .  ABSBIT   -----  BIT      00A0H  1
P11. . . . . . . . . . . . . . . . . .  ABSBIT   -----  BIT      0091H  1
P02. . . . . . . . . . . . . . . . . .  ABSBIT   -----  BIT      0082H  1
IAP_TPS. . . . . . . . . . . . . . . .  SFR      DATA   U_CHAR   00F5H  1
P30. . . . . . . . . . . . . . . . . .  ABSBIT   -----  BIT      00B0H  1
P21. . . . . . . . . . . . . . . . . .  ABSBIT   -----  BIT      00A1H  1
P12. . . . . . . . . . . . . . . . . .  ABSBIT   -----  BIT      0092H  1
P03. . . . . . . . . . . . . . . . . .  ABSBIT   -----  BIT      0083H  1
P40. . . . . . . . . . . . . . . . . .  ABSBIT   -----  BIT      00C0H  1
P31. . . . . . . . . . . . . . . . . .  ABSBIT   -----  BIT      00B1H  1
P22. . . . . . . . . . . . . . . . . .  ABSBIT   -----  BIT      00A2H  1
C51 COMPILER V9.57.0.0   FINGERPRINT                                                       02/19/2022 23:37:21 PAGE 9   

NAME                                    CLASS   MSPACE  TYPE    OFFSET  SIZE
====                                    =====   ======  ====    ======  ====


SCON . . . . . . . . . . . . . . . . .  SFR      DATA   U_CHAR   0098H  1
P13. . . . . . . . . . . . . . . . . .  ABSBIT   -----  BIT      0093H  1
P04. . . . . . . . . . . . . . . . . .  ABSBIT   -----  BIT      0084H  1
P50. . . . . . . . . . . . . . . . . .  ABSBIT   -----  BIT      00C8H  1
P41. . . . . . . . . . . . . . . . . .  ABSBIT   -----  BIT      00C1H  1
P32. . . . . . . . . . . . . . . . . .  ABSBIT   -----  BIT      00B2H  1
P23. . . . . . . . . . . . . . . . . .  ABSBIT   -----  BIT      00A3H  1
P14. . . . . . . . . . . . . . . . . .  ABSBIT   -----  BIT      0094H  1
TMOD . . . . . . . . . . . . . . . . .  SFR      DATA   U_CHAR   0089H  1
TCON . . . . . . . . . . . . . . . . .  SFR      DATA   U_CHAR   0088H  1
P05. . . . . . . . . . . . . . . . . .  ABSBIT   -----  BIT      0085H  1
P51. . . . . . . . . . . . . . . . . .  ABSBIT   -----  BIT      00C9H  1
P42. . . . . . . . . . . . . . . . . .  ABSBIT   -----  BIT      00C2H  1
P33. . . . . . . . . . . . . . . . . .  ABSBIT   -----  BIT      00B3H  1
P24. . . . . . . . . . . . . . . . . .  ABSBIT   -----  BIT      00A4H  1
P15. . . . . . . . . . . . . . . . . .  ABSBIT   -----  BIT      0095H  1
P06. . . . . . . . . . . . . . . . . .  ABSBIT   -----  BIT      0086H  1
P52. . . . . . . . . . . . . . . . . .  ABSBIT   -----  BIT      00CAH  1
P43. . . . . . . . . . . . . . . . . .  ABSBIT   -----  BIT      00C3H  1
PLVD . . . . . . . . . . . . . . . . .  ABSBIT   -----  BIT      00BEH  1
P34. . . . . . . . . . . . . . . . . .  ABSBIT   -----  BIT      00B4H  1
P25. . . . . . . . . . . . . . . . . .  ABSBIT   -----  BIT      00A5H  1
P16. . . . . . . . . . . . . . . . . .  ABSBIT   -----  BIT      0096H  1
P07. . . . . . . . . . . . . . . . . .  ABSBIT   -----  BIT      0087H  1
P53. . . . . . . . . . . . . . . . . .  ABSBIT   -----  BIT      00CBH  1
P44. . . . . . . . . . . . . . . . . .  ABSBIT   -----  BIT      00C4H  1
P35. . . . . . . . . . . . . . . . . .  ABSBIT   -----  BIT      00B5H  1
P26. . . . . . . . . . . . . . . . . .  ABSBIT   -----  BIT      00A6H  1
P17. . . . . . . . . . . . . . . . . .  ABSBIT   -----  BIT      0097H  1
P54. . . . . . . . . . . . . . . . . .  ABSBIT   -----  BIT      00CCH  1
P45. . . . . . . . . . . . . . . . . .  ABSBIT   -----  BIT      00C5H  1
P36. . . . . . . . . . . . . . . . . .  ABSBIT   -----  BIT      00B6H  1
P27. . . . . . . . . . . . . . . . . .  ABSBIT   -----  BIT      00A7H  1
P55. . . . . . . . . . . . . . . . . .  ABSBIT   -----  BIT      00CDH  1
P46. . . . . . . . . . . . . . . . . .  ABSBIT   -----  BIT      00C6H  1
P37. . . . . . . . . . . . . . . . . .  ABSBIT   -----  BIT      00B7H  1
P56. . . . . . . . . . . . . . . . . .  ABSBIT   -----  BIT      00CEH  1
P47. . . . . . . . . . . . . . . . . .  ABSBIT   -----  BIT      00C7H  1
P57. . . . . . . . . . . . . . . . . .  ABSBIT   -----  BIT      00CFH  1
uart . . . . . . . . . . . . . . . . .  PUBLIC   DATA   PTR      0000H  3
IE0. . . . . . . . . . . . . . . . . .  ABSBIT   -----  BIT      0089H  1
_numberscopy . . . . . . . . . . . . .  EXTERN   CODE   PROC     -----  -----
IE1. . . . . . . . . . . . . . . . . .  ABSBIT   -----  BIT      008BH  1
IE2. . . . . . . . . . . . . . . . . .  SFR      DATA   U_CHAR   00AFH  1
B. . . . . . . . . . . . . . . . . . .  SFR      DATA   U_CHAR   00F0H  1
AUXR . . . . . . . . . . . . . . . . .  SFR      DATA   U_CHAR   008EH  1
uint . . . . . . . . . . . . . . . . .  TYPEDEF  -----  U_INT    -----  2
USBADR . . . . . . . . . . . . . . . .  SFR      DATA   U_CHAR   00FCH  1
IAP_CONTR. . . . . . . . . . . . . . .  SFR      DATA   U_CHAR   00C7H  1
USBDAT . . . . . . . . . . . . . . . .  SFR      DATA   U_CHAR   00ECH  1
USBCLK . . . . . . . . . . . . . . . .  SFR      DATA   U_CHAR   00DCH  1
ACC. . . . . . . . . . . . . . . . . .  SFR      DATA   U_CHAR   00E0H  1
ET0. . . . . . . . . . . . . . . . . .  ABSBIT   -----  BIT      00A9H  1
ET1. . . . . . . . . . . . . . . . . .  ABSBIT   -----  BIT      00ABH  1
TF0. . . . . . . . . . . . . . . . . .  ABSBIT   -----  BIT      008DH  1
RSTCFG . . . . . . . . . . . . . . . .  SFR      DATA   U_CHAR   00FFH  1
IP2. . . . . . . . . . . . . . . . . .  SFR      DATA   U_CHAR   00B5H  1
C51 COMPILER V9.57.0.0   FINGERPRINT                                                       02/19/2022 23:37:21 PAGE 10  

NAME                                    CLASS   MSPACE  TYPE    OFFSET  SIZE
====                                    =====   ======  ====    ======  ====


TF1. . . . . . . . . . . . . . . . . .  ABSBIT   -----  BIT      008FH  1
UartSet. . . . . . . . . . . . . . . .  * TAG *  -----  STRUCT   -----  90
  _uartId. . . . . . . . . . . . . . .  MEMBER   -----  U_CHAR   0000H  1
  _uartWrite . . . . . . . . . . . . .  MEMBER   -----  ARRAY    0001H  16
  _uartRead. . . . . . . . . . . . . .  MEMBER   -----  ARRAY    0011H  48
  _uartSign. . . . . . . . . . . . . .  MEMBER   -----  U_CHAR   0041H  1
  _uartStart . . . . . . . . . . . . .  MEMBER   -----  U_CHAR   0042H  1
  _readFlag. . . . . . . . . . . . . .  MEMBER   -----  U_CHAR   0043H  1
  _uartTime. . . . . . . . . . . . . .  MEMBER   -----  U_INT    0044H  2
  busy . . . . . . . . . . . . . . . .  MEMBER   -----  U_CHAR   0046H  1
  _baudRate. . . . . . . . . . . . . .  MEMBER   -----  U_LONG   0047H  4
  UartWriteChar. . . . . . . . . . . .  MEMBER   -----  PTR      004BH  3
  UartWriteString. . . . . . . . . . .  MEMBER   -----  PTR      004EH  3
  UartWriteBuffe . . . . . . . . . . .  MEMBER   -----  PTR      0051H  3
  UartRead . . . . . . . . . . . . . .  MEMBER   -----  PTR      0054H  3
  UartReadTime . . . . . . . . . . . .  MEMBER   -----  PTR      0057H  3
USBCON . . . . . . . . . . . . . . . .  SFR      DATA   U_CHAR   00F4H  1
IP3. . . . . . . . . . . . . . . . . .  SFR      DATA   U_CHAR   00DFH  1
RB8. . . . . . . . . . . . . . . . . .  ABSBIT   -----  BIT      009AH  1
TH0. . . . . . . . . . . . . . . . . .  SFR      DATA   U_CHAR   008CH  1
EX0. . . . . . . . . . . . . . . . . .  ABSBIT   -----  BIT      00A8H  1
TH1. . . . . . . . . . . . . . . . . .  SFR      DATA   U_CHAR   008DH  1
IT0. . . . . . . . . . . . . . . . . .  ABSBIT   -----  BIT      0088H  1
T2H. . . . . . . . . . . . . . . . . .  SFR      DATA   U_CHAR   00D6H  1
EX1. . . . . . . . . . . . . . . . . .  ABSBIT   -----  BIT      00AAH  1
TB8. . . . . . . . . . . . . . . . . .  ABSBIT   -----  BIT      009BH  1
IT1. . . . . . . . . . . . . . . . . .  ABSBIT   -----  BIT      008AH  1
T3H. . . . . . . . . . . . . . . . . .  SFR      DATA   U_CHAR   00D4H  1
P. . . . . . . . . . . . . . . . . . .  ABSBIT   -----  BIT      00D0H  1
T4H. . . . . . . . . . . . . . . . . .  SFR      DATA   U_CHAR   00D2H  1
SM0. . . . . . . . . . . . . . . . . .  ABSBIT   -----  BIT      009FH  1
TL0. . . . . . . . . . . . . . . . . .  SFR      DATA   U_CHAR   008AH  1
SM1. . . . . . . . . . . . . . . . . .  ABSBIT   -----  BIT      009EH  1
TL1. . . . . . . . . . . . . . . . . .  SFR      DATA   U_CHAR   008BH  1
T2L. . . . . . . . . . . . . . . . . .  SFR      DATA   U_CHAR   00D7H  1
SM2. . . . . . . . . . . . . . . . . .  ABSBIT   -----  BIT      009DH  1
T3L. . . . . . . . . . . . . . . . . .  SFR      DATA   U_CHAR   00D5H  1
T4L. . . . . . . . . . . . . . . . . .  SFR      DATA   U_CHAR   00D3H  1
PT0. . . . . . . . . . . . . . . . . .  ABSBIT   -----  BIT      00B9H  1
RS0. . . . . . . . . . . . . . . . . .  ABSBIT   -----  BIT      00D3H  1
PT1. . . . . . . . . . . . . . . . . .  ABSBIT   -----  BIT      00BBH  1
RS1. . . . . . . . . . . . . . . . . .  ABSBIT   -----  BIT      00D4H  1
IAP_DATA . . . . . . . . . . . . . . .  SFR      DATA   U_CHAR   00C2H  1
TR0. . . . . . . . . . . . . . . . . .  ABSBIT   -----  BIT      008CH  1
TR1. . . . . . . . . . . . . . . . . .  ABSBIT   -----  BIT      008EH  1
WDT_CONTR. . . . . . . . . . . . . . .  SFR      DATA   U_CHAR   00C1H  1
PX0. . . . . . . . . . . . . . . . . .  ABSBIT   -----  BIT      00B8H  1
PX1. . . . . . . . . . . . . . . . . .  ABSBIT   -----  BIT      00BAH  1
IRTRIM . . . . . . . . . . . . . . . .  SFR      DATA   U_CHAR   009FH  1
DPH. . . . . . . . . . . . . . . . . .  SFR      DATA   U_CHAR   0083H  1
u16. . . . . . . . . . . . . . . . . .  TYPEDEF  -----  U_INT    -----  2
T4T3M. . . . . . . . . . . . . . . . .  SFR      DATA   U_CHAR   00D1H  1
Finger . . . . . . . . . . . . . . . .  TYPEDEF  -----  STRUCT   -----  32
  _fingerId. . . . . . . . . . . . . .  MEMBER   -----  U_CHAR   0000H  1
  _fingerSwitch. . . . . . . . . . . .  MEMBER   -----  U_CHAR   0001H  1
  FingerPower. . . . . . . . . . . . .  MEMBER   -----  PTR      0002H  3
  FingerRegistered . . . . . . . . . .  MEMBER   -----  PTR      0005H  3
C51 COMPILER V9.57.0.0   FINGERPRINT                                                       02/19/2022 23:37:21 PAGE 11  

NAME                                    CLASS   MSPACE  TYPE    OFFSET  SIZE
====                                    =====   ======  ====    ======  ====


  FingerPairing. . . . . . . . . . . .  MEMBER   -----  PTR      0008H  3
  FingerDelete . . . . . . . . . . . .  MEMBER   -----  PTR      000BH  3
  FingerNumber . . . . . . . . . . . .  MEMBER   -----  PTR      000EH  3
  FingerCancel . . . . . . . . . . . .  MEMBER   -----  PTR      0011H  3
  FingerDormancy . . . . . . . . . . .  MEMBER   -----  PTR      0014H  3
  FingerCheck. . . . . . . . . . . . .  MEMBER   -----  PTR      0017H  3
  FingerDocking. . . . . . . . . . . .  MEMBER   -----  PTR      001AH  3
  FingerIdentity . . . . . . . . . . .  MEMBER   -----  PTR      001DH  3
FringeErrors . . . . . . . . . . . . .  PUBLIC   DATA   ARRAY    0003H  68
ADC_RESL . . . . . . . . . . . . . . .  SFR      DATA   U_CHAR   00BEH  1
DPL. . . . . . . . . . . . . . . . . .  SFR      DATA   U_CHAR   0082H  1
SPSTAT . . . . . . . . . . . . . . . .  SFR      DATA   U_CHAR   00CDH  1
IPH. . . . . . . . . . . . . . . . . .  SFR      DATA   U_CHAR   00B7H  1
S2BUF. . . . . . . . . . . . . . . . .  SFR      DATA   U_CHAR   009BH  1
S3BUF. . . . . . . . . . . . . . . . .  SFR      DATA   U_CHAR   00ADH  1
REN. . . . . . . . . . . . . . . . . .  ABSBIT   -----  BIT      009CH  1
S4BUF. . . . . . . . . . . . . . . . .  SFR      DATA   U_CHAR   0085H  1
S2CON. . . . . . . . . . . . . . . . .  SFR      DATA   U_CHAR   009AH  1
fingerprintSum . . . . . . . . . . . .  PUBLIC   CODE   ARRAY    00F2H  2
DPS. . . . . . . . . . . . . . . . . .  SFR      DATA   U_CHAR   00E3H  1
S3CON. . . . . . . . . . . . . . . . .  SFR      DATA   U_CHAR   00ACH  1
FingerStruct . . . . . . . . . . . . .  * TAG *  -----  STRUCT   -----  32
  _fingerId. . . . . . . . . . . . . .  MEMBER   -----  U_CHAR   0000H  1
  _fingerSwitch. . . . . . . . . . . .  MEMBER   -----  U_CHAR   0001H  1
  FingerPower. . . . . . . . . . . . .  MEMBER   -----  PTR      0002H  3
  FingerRegistered . . . . . . . . . .  MEMBER   -----  PTR      0005H  3
  FingerPairing. . . . . . . . . . . .  MEMBER   -----  PTR      0008H  3
  FingerDelete . . . . . . . . . . . .  MEMBER   -----  PTR      000BH  3
  FingerNumber . . . . . . . . . . . .  MEMBER   -----  PTR      000EH  3
  FingerCancel . . . . . . . . . . . .  MEMBER   -----  PTR      0011H  3
  FingerDormancy . . . . . . . . . . .  MEMBER   -----  PTR      0014H  3
  FingerCheck. . . . . . . . . . . . .  MEMBER   -----  PTR      0017H  3
  FingerDocking. . . . . . . . . . . .  MEMBER   -----  PTR      001AH  3
  FingerIdentity . . . . . . . . . . .  MEMBER   -----  PTR      001DH  3
S4CON. . . . . . . . . . . . . . . . .  SFR      DATA   U_CHAR   0084H  1
AUXINTIF . . . . . . . . . . . . . . .  SFR      DATA   U_CHAR   00EFH  1
FringeError. . . . . . . . . . . . . .  TYPEDEF  -----  STRUCT   -----  4
  _ErrorId . . . . . . . . . . . . . .  MEMBER   -----  U_CHAR   0000H  1
  _Information . . . . . . . . . . . .  MEMBER   -----  PTR      0001H  3
wchar_t. . . . . . . . . . . . . . . .  TYPEDEF  -----  CHAR     -----  1
SADEN. . . . . . . . . . . . . . . . .  SFR      DATA   U_CHAR   00B9H  1
SADDR. . . . . . . . . . . . . . . . .  SFR      DATA   U_CHAR   00A9H  1
uart4. . . . . . . . . . . . . . . . .  EXTERN   XDATA  STRUCT   -----  90
IAP_TRIG . . . . . . . . . . . . . . .  SFR      DATA   U_CHAR   00C6H  1
fingerprintDormancy. . . . . . . . . .  PUBLIC   CODE   ARRAY    0119H  4
fingerprintDocking . . . . . . . . . .  PUBLIC   CODE   ARRAY    0121H  4
F0 . . . . . . . . . . . . . . . . . .  ABSBIT   -----  BIT      00D5H  1
IRCBAND. . . . . . . . . . . . . . . .  SFR      DATA   U_CHAR   009DH  1
F1 . . . . . . . . . . . . . . . . . .  ABSBIT   -----  BIT      00D1H  1
fingerprintCancel. . . . . . . . . . .  PUBLIC   CODE   ARRAY    0115H  4
PSW. . . . . . . . . . . . . . . . . .  SFR      DATA   U_CHAR   00D0H  1
fingerprintRegister. . . . . . . . . .  PUBLIC   CODE   ARRAY    00F4H  8
_FingerUart. . . . . . . . . . . . . .  PUBLIC   CODE   PROC     0000H  -----
  num. . . . . . . . . . . . . . . . .  AUTO     DATA   PTR      0000H  3
  i. . . . . . . . . . . . . . . . . .  AUTO     DATA   U_CHAR   0003H  1
SPDAT. . . . . . . . . . . . . . . . .  SFR      DATA   U_CHAR   00CFH  1
P0M0 . . . . . . . . . . . . . . . . .  SFR      DATA   U_CHAR   0094H  1

C51 COMPILER V9.57.0.0   FINGERPRINT                                                       02/19/2022 23:37:21 PAGE 12  


MODULE INFORMATION:   STATIC OVERLAYABLE
   CODE SIZE        =    260    ----
   CONSTANT SIZE    =    298    ----
   XDATA SIZE       =     32       8
   PDATA SIZE       =   ----    ----
   DATA SIZE        =     71       7
   IDATA SIZE       =   ----    ----
   BIT SIZE         =   ----    ----
   EDATA SIZE       =   ----    ----
   HDATA SIZE       =   ----    ----
   XDATA CONST SIZE =   ----    ----
   FAR CONST SIZE   =   ----    ----
END OF MODULE INFORMATION.


C51 COMPILATION COMPLETE.  0 WARNING(S),  0 ERROR(S)
