C51 COMPILER V9.57.0.0   MAIN                                                              02/19/2022 23:37:23 PAGE 1   


C51 COMPILER V9.57.0.0, COMPILATION OF MODULE MAIN
OBJECT MODULE PLACED IN .\build\Target 1\__\User\main.o
COMPILER INVOKED BY: D:\keil5\C51\BIN\C51.exe .\..\USER\MAIN.C PRINT(.\build\Target 1\__\User\main.lst) OMF2 TABS(4) COD
                    -E NOCOND SYMBOLS OPTIMIZE(8,SPEED) SMALL ROM(LARGE) INCDIR(D:\keil5\C51\INC\Atmel;.\..\APP;.\..;.\..\APP\ADC;.\..\APP\Ee
                    -prom;.\..\APP\Fingerprint;.\..\APP\System;.\..\APP\Uart;.\..\APP\WIFI;.\..\APP\LCD;.\..\APP\SPI;.\..\APP\GUI;.\..\APP\Ti
                    -me;.\..\APP\H;D:\keil5\C51\INC) DEFINE(__UVISION_VERSION=526) OBJECT(.\build\Target 1\__\User\main.o)

line level    source

   1          #include "ADC.h"
   2          #include "Public.h"
   3          #include "Uart.h"
   4          //#include "GUI.h"
   5          #include "ST7789V.h"
   6          #include "Time.h"
   7          
   8          void IoInit();
   9          
  10          void main()
  11          {
  12   1          
  13   1          IoInit();//IO初始化
  14   1          UartStructInit(&uart1,1,baud115200);//串口1初始化
  15   1          //TimeInit();
  16   1          UartStructInit(&uart4,4,57600);//串口2初始化
  17   1          TimeInit();//定时器初始化
  18   1          Lcd_Power.BACK(0);
  19   1          Lcd_Power.POWER(0);
  20   1          while(1)
  21   1          { 
  22   2              if(uart1._readFlag)
  23   2              {
  24   3                  uart1._readFlag = 0;
  25   3                  timesindex = uart1._uartRead[0];
  26   3                  uart1.UartWriteChar(&uart1,timesindex);
  27   3                  //uart1.UartWriteBuffe(&uart4,&uart1);
  28   3                  uart1._uartSign = 0;
  29   3              }
  30   2               if(uart4._readFlag)
  31   2              {
  32   3                  uart4._readFlag = 0;
  33   3                  //uart1.UartWriteBuffe(&uart1,&uart4);
  34   3                  uart4._uartSign = 0;
  35   3              } 
  36   2          }
  37   1      }
  38          
  39          void IoInit()
  40          {
  41   1          P0M0 = 0x00;
  42   1          P0M1 = 0x00;
  43   1          P2M0 = 0x00;
  44   1          P2M1 = 0x00;
  45   1          P3M0 = 0x00;
  46   1          P3M1 = 0x00;
  47   1          P1M0 = 0x00;
  48   1          P1M1 = 0x00;
  49   1          P5M0 = 0x00;
  50   1          P5M1 = 0x00;
  51   1      }
C51 COMPILER V9.57.0.0   MAIN                                                              02/19/2022 23:37:23 PAGE 2   

ASSEMBLY LISTING OF GENERATED OBJECT CODE


             ; FUNCTION main (BEGIN)
                                           ; SOURCE LINE # 10
                                           ; SOURCE LINE # 11
                                           ; SOURCE LINE # 13
0000 120000      R     LCALL   IoInit
                                           ; SOURCE LINE # 14
0003 7B01              MOV     R3,#01H
0005 7A00        E     MOV     R2,#HIGH uart1
0007 7900        E     MOV     R1,#LOW uart1
0009 750000      E     MOV     ?_UartStructInit?BYTE+07H,#00H
000C 7500C2      E     MOV     ?_UartStructInit?BYTE+06H,#0C2H
000F 750001      E     MOV     ?_UartStructInit?BYTE+05H,#01H
0012 750000      E     MOV     ?_UartStructInit?BYTE+04H,#00H
0015 7D01              MOV     R5,#01H
0017 120000      E     LCALL   _UartStructInit
                                           ; SOURCE LINE # 16
001A 7B01              MOV     R3,#01H
001C 7A00        E     MOV     R2,#HIGH uart4
001E 7900        E     MOV     R1,#LOW uart4
0020 E4                CLR     A
0021 F500        E     MOV     ?_UartStructInit?BYTE+07H,A
0023 7500E1      E     MOV     ?_UartStructInit?BYTE+06H,#0E1H
0026 F500        E     MOV     ?_UartStructInit?BYTE+05H,A
0028 F500        E     MOV     ?_UartStructInit?BYTE+04H,A
002A 7D04              MOV     R5,#04H
002C 120000      E     LCALL   _UartStructInit
                                           ; SOURCE LINE # 17
002F 120000      E     LCALL   TimeInit
                                           ; SOURCE LINE # 18
0032 900000      E     MOV     DPTR,#Lcd_Power
0035 A3                INC     DPTR
0036 E0                MOVX    A,@DPTR
0037 FA                MOV     R2,A
0038 A3                INC     DPTR
0039 E0                MOVX    A,@DPTR
003A F582              MOV     DPL,A
003C 8A83              MOV     DPH,R2
003E E4                CLR     A
003F FF                MOV     R7,A
0040 FE                MOV     R6,A
0041 120000      E     LCALL   ?C?ICALL2
                                           ; SOURCE LINE # 19
0044 900000      E     MOV     DPTR,#Lcd_Power+03H
0047 A3                INC     DPTR
0048 E0                MOVX    A,@DPTR
0049 FA                MOV     R2,A
004A A3                INC     DPTR
004B E0                MOVX    A,@DPTR
004C F582              MOV     DPL,A
004E 8A83              MOV     DPH,R2
0050 E4                CLR     A
0051 FF                MOV     R7,A
0052 FE                MOV     R6,A
0053 120000      E     LCALL   ?C?ICALL2
0056         ?C0001:
                                           ; SOURCE LINE # 20
                                           ; SOURCE LINE # 21
                                           ; SOURCE LINE # 22
0056 900000      E     MOV     DPTR,#uart1+043H
C51 COMPILER V9.57.0.0   MAIN                                                              02/19/2022 23:37:23 PAGE 3   

0059 E0                MOVX    A,@DPTR
005A 6030              JZ      ?C0003
                                           ; SOURCE LINE # 23
                                           ; SOURCE LINE # 24
005C E4                CLR     A
005D F0                MOVX    @DPTR,A
                                           ; SOURCE LINE # 25
005E 900000      E     MOV     DPTR,#uart1+011H
0061 E0                MOVX    A,@DPTR
0062 FF                MOV     R7,A
0063 7E00              MOV     R6,#00H
0065 900000      E     MOV     DPTR,#timesindex
0068 EE                MOV     A,R6
0069 F0                MOVX    @DPTR,A
006A A3                INC     DPTR
006B EF                MOV     A,R7
006C F0                MOVX    @DPTR,A
                                           ; SOURCE LINE # 26
006D 7B01              MOV     R3,#01H
006F 7A00        E     MOV     R2,#HIGH uart1
0071 7900        E     MOV     R1,#LOW uart1
0073 C002              PUSH    AR2
0075 FD                MOV     R5,A
0076 900000      E     MOV     DPTR,#uart1+04BH
0079 A3                INC     DPTR
007A E0                MOVX    A,@DPTR
007B FA                MOV     R2,A
007C A3                INC     DPTR
007D E0                MOVX    A,@DPTR
007E F582              MOV     DPL,A
0080 8A83              MOV     DPH,R2
0082 D002              POP     AR2
0084 120000      E     LCALL   ?C?ICALL2
                                           ; SOURCE LINE # 28
0087 E4                CLR     A
0088 900000      E     MOV     DPTR,#uart1+041H
008B F0                MOVX    @DPTR,A
                                           ; SOURCE LINE # 29
008C         ?C0003:
                                           ; SOURCE LINE # 30
008C 900000      E     MOV     DPTR,#uart4+043H
008F E0                MOVX    A,@DPTR
0090 60C4              JZ      ?C0001
                                           ; SOURCE LINE # 31
                                           ; SOURCE LINE # 32
0092 E4                CLR     A
0093 F0                MOVX    @DPTR,A
                                           ; SOURCE LINE # 34
0094 900000      E     MOV     DPTR,#uart4+041H
0097 F0                MOVX    @DPTR,A
                                           ; SOURCE LINE # 35
                                           ; SOURCE LINE # 36
0098 80BC              SJMP    ?C0001
             ; FUNCTION main (END)

             ; FUNCTION IoInit (BEGIN)
                                           ; SOURCE LINE # 39
                                           ; SOURCE LINE # 40
                                           ; SOURCE LINE # 41
0000 E4                CLR     A
0001 F594              MOV     P0M0,A
                                           ; SOURCE LINE # 42
C51 COMPILER V9.57.0.0   MAIN                                                              02/19/2022 23:37:23 PAGE 4   

0003 F593              MOV     P0M1,A
                                           ; SOURCE LINE # 43
0005 F596              MOV     P2M0,A
                                           ; SOURCE LINE # 44
0007 F595              MOV     P2M1,A
                                           ; SOURCE LINE # 45
0009 F5B2              MOV     P3M0,A
                                           ; SOURCE LINE # 46
000B F5B1              MOV     P3M1,A
                                           ; SOURCE LINE # 47
000D F592              MOV     P1M0,A
                                           ; SOURCE LINE # 48
000F F591              MOV     P1M1,A
                                           ; SOURCE LINE # 49
0011 F5CA              MOV     P5M0,A
                                           ; SOURCE LINE # 50
0013 F5C9              MOV     P5M1,A
                                           ; SOURCE LINE # 51
0015 22                RET     
             ; FUNCTION IoInit (END)

C51 COMPILER V9.57.0.0   MAIN                                                              02/19/2022 23:37:23 PAGE 5   

NAME                                    CLASS   MSPACE  TYPE    OFFSET  SIZE
====                                    =====   ======  ====    ======  ====


P0M1 . . . . . . . . . . . . . . . . .  SFR      DATA   U_CHAR   0093H  1
P1M0 . . . . . . . . . . . . . . . . .  SFR      DATA   U_CHAR   0092H  1
P2M0 . . . . . . . . . . . . . . . . .  SFR      DATA   U_CHAR   0096H  1
P1M1 . . . . . . . . . . . . . . . . .  SFR      DATA   U_CHAR   0091H  1
P0 . . . . . . . . . . . . . . . . . .  SFR      DATA   U_CHAR   0080H  1
P3M0 . . . . . . . . . . . . . . . . .  SFR      DATA   U_CHAR   00B2H  1
P2M1 . . . . . . . . . . . . . . . . .  SFR      DATA   U_CHAR   0095H  1
P1 . . . . . . . . . . . . . . . . . .  SFR      DATA   U_CHAR   0090H  1
P4M0 . . . . . . . . . . . . . . . . .  SFR      DATA   U_CHAR   00B4H  1
P3M1 . . . . . . . . . . . . . . . . .  SFR      DATA   U_CHAR   00B1H  1
P2 . . . . . . . . . . . . . . . . . .  SFR      DATA   U_CHAR   00A0H  1
LCDSCLK. . . . . . . . . . . . . . . .  ABSBIT   -----  BIT      00C8H  1
P5M0 . . . . . . . . . . . . . . . . .  SFR      DATA   U_CHAR   00CAH  1
P4M1 . . . . . . . . . . . . . . . . .  SFR      DATA   U_CHAR   00B3H  1
P3 . . . . . . . . . . . . . . . . . .  SFR      DATA   U_CHAR   00B0H  1
WKTCH. . . . . . . . . . . . . . . . .  SFR      DATA   U_CHAR   00ABH  1
AC . . . . . . . . . . . . . . . . . .  ABSBIT   -----  BIT      00D6H  1
P6M0 . . . . . . . . . . . . . . . . .  SFR      DATA   U_CHAR   00CCH  1
P5M1 . . . . . . . . . . . . . . . . .  SFR      DATA   U_CHAR   00C9H  1
P4 . . . . . . . . . . . . . . . . . .  SFR      DATA   U_CHAR   00C0H  1
Lcd_Power. . . . . . . . . . . . . . .  EXTERN   XDATA  STRUCT   -----  9
P7M0 . . . . . . . . . . . . . . . . .  SFR      DATA   U_CHAR   00E2H  1
P6M1 . . . . . . . . . . . . . . . . .  SFR      DATA   U_CHAR   00CBH  1
P5 . . . . . . . . . . . . . . . . . .  SFR      DATA   U_CHAR   00C8H  1
P6 . . . . . . . . . . . . . . . . . .  SFR      DATA   U_CHAR   00E8H  1
P7M1 . . . . . . . . . . . . . . . . .  SFR      DATA   U_CHAR   00E1H  1
EA . . . . . . . . . . . . . . . . . .  ABSBIT   -----  BIT      00AFH  1
P7 . . . . . . . . . . . . . . . . . .  SFR      DATA   U_CHAR   00F8H  1
WKTCL. . . . . . . . . . . . . . . . .  SFR      DATA   U_CHAR   00AAH  1
SPCTL. . . . . . . . . . . . . . . . .  SFR      DATA   U_CHAR   00CEH  1
P_SW1. . . . . . . . . . . . . . . . .  SFR      DATA   U_CHAR   00A2H  1
P_SW2. . . . . . . . . . . . . . . . .  SFR      DATA   U_CHAR   00BAH  1
LCDMOSI. . . . . . . . . . . . . . . .  ABSBIT   -----  BIT      00B3H  1
DPH1 . . . . . . . . . . . . . . . . .  SFR      DATA   U_CHAR   00E5H  1
EADC . . . . . . . . . . . . . . . . .  ABSBIT   -----  BIT      00ADH  1
IE . . . . . . . . . . . . . . . . . .  SFR      DATA   U_CHAR   00A8H  1
IAP_CMD. . . . . . . . . . . . . . . .  SFR      DATA   U_CHAR   00C5H  1
size_t . . . . . . . . . . . . . . . .  TYPEDEF  -----  U_INT    -----  2
DPL1 . . . . . . . . . . . . . . . . .  SFR      DATA   U_CHAR   00E4H  1
ADC_RES. . . . . . . . . . . . . . . .  SFR      DATA   U_CHAR   00BDH  1
IP2H . . . . . . . . . . . . . . . . .  SFR      DATA   U_CHAR   00B6H  1
IP3H . . . . . . . . . . . . . . . . .  SFR      DATA   U_CHAR   00EEH  1
TA . . . . . . . . . . . . . . . . . .  SFR      DATA   U_CHAR   00AEH  1
uchar. . . . . . . . . . . . . . . . .  TYPEDEF  -----  U_CHAR   -----  1
INTCLKO. . . . . . . . . . . . . . . .  SFR      DATA   U_CHAR   008FH  1
ES . . . . . . . . . . . . . . . . . .  ABSBIT   -----  BIT      00ACH  1
PADC . . . . . . . . . . . . . . . . .  ABSBIT   -----  BIT      00BDH  1
IP . . . . . . . . . . . . . . . . . .  SFR      DATA   U_CHAR   00B8H  1
ADCCFG . . . . . . . . . . . . . . . .  SFR      DATA   U_CHAR   00DEH  1
RI . . . . . . . . . . . . . . . . . .  ABSBIT   -----  BIT      0098H  1
CY . . . . . . . . . . . . . . . . . .  ABSBIT   -----  BIT      00D7H  1
TI . . . . . . . . . . . . . . . . . .  ABSBIT   -----  BIT      0099H  1
Uart . . . . . . . . . . . . . . . . .  TYPEDEF  -----  STRUCT   -----  90
  _uartId. . . . . . . . . . . . . . .  MEMBER   -----  U_CHAR   0000H  1
  _uartWrite . . . . . . . . . . . . .  MEMBER   -----  ARRAY    0001H  16
  _uartRead. . . . . . . . . . . . . .  MEMBER   -----  ARRAY    0011H  48
  _uartSign. . . . . . . . . . . . . .  MEMBER   -----  U_CHAR   0041H  1
C51 COMPILER V9.57.0.0   MAIN                                                              02/19/2022 23:37:23 PAGE 6   

NAME                                    CLASS   MSPACE  TYPE    OFFSET  SIZE
====                                    =====   ======  ====    ======  ====


  _uartStart . . . . . . . . . . . . .  MEMBER   -----  U_CHAR   0042H  1
  _readFlag. . . . . . . . . . . . . .  MEMBER   -----  U_CHAR   0043H  1
  _uartTime. . . . . . . . . . . . . .  MEMBER   -----  U_INT    0044H  2
  busy . . . . . . . . . . . . . . . .  MEMBER   -----  U_CHAR   0046H  1
  _baudRate. . . . . . . . . . . . . .  MEMBER   -----  U_LONG   0047H  4
  UartWriteChar. . . . . . . . . . . .  MEMBER   -----  PTR      004BH  3
  UartWriteString. . . . . . . . . . .  MEMBER   -----  PTR      004EH  3
  UartWriteBuffe . . . . . . . . . . .  MEMBER   -----  PTR      0051H  3
  UartRead . . . . . . . . . . . . . .  MEMBER   -----  PTR      0054H  3
  UartReadTime . . . . . . . . . . . .  MEMBER   -----  PTR      0057H  3
IAP_ADDRH. . . . . . . . . . . . . . .  SFR      DATA   U_CHAR   00C3H  1
PS . . . . . . . . . . . . . . . . . .  ABSBIT   -----  BIT      00BCH  1
SP . . . . . . . . . . . . . . . . . .  SFR      DATA   U_CHAR   0081H  1
IAP_ADDRL. . . . . . . . . . . . . . .  SFR      DATA   U_CHAR   00C4H  1
OV . . . . . . . . . . . . . . . . . .  ABSBIT   -----  BIT      00D2H  1
PPCA . . . . . . . . . . . . . . . . .  ABSBIT   -----  BIT      00BFH  1
LIRTRIM. . . . . . . . . . . . . . . .  SFR      DATA   U_CHAR   009EH  1
main . . . . . . . . . . . . . . . . .  PUBLIC   CODE   PROC     0000H  -----
TimeInit . . . . . . . . . . . . . . .  EXTERN   CODE   PROC     -----  -----
CMPCR1 . . . . . . . . . . . . . . . .  SFR      DATA   U_CHAR   00E6H  1
ulong. . . . . . . . . . . . . . . . .  TYPEDEF  -----  U_LONG   -----  4
CMPCR2 . . . . . . . . . . . . . . . .  SFR      DATA   U_CHAR   00E7H  1
ushort . . . . . . . . . . . . . . . .  TYPEDEF  -----  U_INT    -----  2
ELVD . . . . . . . . . . . . . . . . .  ABSBIT   -----  BIT      00AEH  1
u8 . . . . . . . . . . . . . . . . . .  TYPEDEF  -----  U_CHAR   -----  1
P00. . . . . . . . . . . . . . . . . .  ABSBIT   -----  BIT      0080H  1
ADC_CONTR. . . . . . . . . . . . . . .  SFR      DATA   U_CHAR   00BCH  1
SBUF . . . . . . . . . . . . . . . . .  SFR      DATA   U_CHAR   0099H  1
P10. . . . . . . . . . . . . . . . . .  ABSBIT   -----  BIT      0090H  1
PCON . . . . . . . . . . . . . . . . .  SFR      DATA   U_CHAR   0087H  1
P01. . . . . . . . . . . . . . . . . .  ABSBIT   -----  BIT      0081H  1
P20. . . . . . . . . . . . . . . . . .  ABSBIT   -----  BIT      00A0H  1
P11. . . . . . . . . . . . . . . . . .  ABSBIT   -----  BIT      0091H  1
P02. . . . . . . . . . . . . . . . . .  ABSBIT   -----  BIT      0082H  1
IAP_TPS. . . . . . . . . . . . . . . .  SFR      DATA   U_CHAR   00F5H  1
P30. . . . . . . . . . . . . . . . . .  ABSBIT   -----  BIT      00B0H  1
P21. . . . . . . . . . . . . . . . . .  ABSBIT   -----  BIT      00A1H  1
P12. . . . . . . . . . . . . . . . . .  ABSBIT   -----  BIT      0092H  1
P03. . . . . . . . . . . . . . . . . .  ABSBIT   -----  BIT      0083H  1
P40. . . . . . . . . . . . . . . . . .  ABSBIT   -----  BIT      00C0H  1
P31. . . . . . . . . . . . . . . . . .  ABSBIT   -----  BIT      00B1H  1
P22. . . . . . . . . . . . . . . . . .  ABSBIT   -----  BIT      00A2H  1
SCON . . . . . . . . . . . . . . . . .  SFR      DATA   U_CHAR   0098H  1
P13. . . . . . . . . . . . . . . . . .  ABSBIT   -----  BIT      0093H  1
P04. . . . . . . . . . . . . . . . . .  ABSBIT   -----  BIT      0084H  1
P50. . . . . . . . . . . . . . . . . .  ABSBIT   -----  BIT      00C8H  1
P41. . . . . . . . . . . . . . . . . .  ABSBIT   -----  BIT      00C1H  1
P32. . . . . . . . . . . . . . . . . .  ABSBIT   -----  BIT      00B2H  1
P23. . . . . . . . . . . . . . . . . .  ABSBIT   -----  BIT      00A3H  1
P14. . . . . . . . . . . . . . . . . .  ABSBIT   -----  BIT      0094H  1
TMOD . . . . . . . . . . . . . . . . .  SFR      DATA   U_CHAR   0089H  1
TCON . . . . . . . . . . . . . . . . .  SFR      DATA   U_CHAR   0088H  1
P05. . . . . . . . . . . . . . . . . .  ABSBIT   -----  BIT      0085H  1
P51. . . . . . . . . . . . . . . . . .  ABSBIT   -----  BIT      00C9H  1
P42. . . . . . . . . . . . . . . . . .  ABSBIT   -----  BIT      00C2H  1
P33. . . . . . . . . . . . . . . . . .  ABSBIT   -----  BIT      00B3H  1
P24. . . . . . . . . . . . . . . . . .  ABSBIT   -----  BIT      00A4H  1
C51 COMPILER V9.57.0.0   MAIN                                                              02/19/2022 23:37:23 PAGE 7   

NAME                                    CLASS   MSPACE  TYPE    OFFSET  SIZE
====                                    =====   ======  ====    ======  ====


P15. . . . . . . . . . . . . . . . . .  ABSBIT   -----  BIT      0095H  1
P06. . . . . . . . . . . . . . . . . .  ABSBIT   -----  BIT      0086H  1
P52. . . . . . . . . . . . . . . . . .  ABSBIT   -----  BIT      00CAH  1
P43. . . . . . . . . . . . . . . . . .  ABSBIT   -----  BIT      00C3H  1
PLVD . . . . . . . . . . . . . . . . .  ABSBIT   -----  BIT      00BEH  1
P34. . . . . . . . . . . . . . . . . .  ABSBIT   -----  BIT      00B4H  1
P25. . . . . . . . . . . . . . . . . .  ABSBIT   -----  BIT      00A5H  1
P16. . . . . . . . . . . . . . . . . .  ABSBIT   -----  BIT      0096H  1
P07. . . . . . . . . . . . . . . . . .  ABSBIT   -----  BIT      0087H  1
P53. . . . . . . . . . . . . . . . . .  ABSBIT   -----  BIT      00CBH  1
P44. . . . . . . . . . . . . . . . . .  ABSBIT   -----  BIT      00C4H  1
P35. . . . . . . . . . . . . . . . . .  ABSBIT   -----  BIT      00B5H  1
P26. . . . . . . . . . . . . . . . . .  ABSBIT   -----  BIT      00A6H  1
P17. . . . . . . . . . . . . . . . . .  ABSBIT   -----  BIT      0097H  1
P54. . . . . . . . . . . . . . . . . .  ABSBIT   -----  BIT      00CCH  1
P45. . . . . . . . . . . . . . . . . .  ABSBIT   -----  BIT      00C5H  1
P36. . . . . . . . . . . . . . . . . .  ABSBIT   -----  BIT      00B6H  1
P27. . . . . . . . . . . . . . . . . .  ABSBIT   -----  BIT      00A7H  1
P55. . . . . . . . . . . . . . . . . .  ABSBIT   -----  BIT      00CDH  1
P46. . . . . . . . . . . . . . . . . .  ABSBIT   -----  BIT      00C6H  1
P37. . . . . . . . . . . . . . . . . .  ABSBIT   -----  BIT      00B7H  1
LCD_DC . . . . . . . . . . . . . . . .  ABSBIT   -----  BIT      00B4H  1
P56. . . . . . . . . . . . . . . . . .  ABSBIT   -----  BIT      00CEH  1
P47. . . . . . . . . . . . . . . . . .  ABSBIT   -----  BIT      00C7H  1
off. . . . . . . . . . . . . . . . . .  E_CONST  -----  U_CHAR   -----  1
P57. . . . . . . . . . . . . . . . . .  ABSBIT   -----  BIT      00CFH  1
IE0. . . . . . . . . . . . . . . . . .  ABSBIT   -----  BIT      0089H  1
LCDRES . . . . . . . . . . . . . . . .  ABSBIT   -----  BIT      00C0H  1
_UartStructInit. . . . . . . . . . . .  EXTERN   CODE   PROC     -----  -----
IE1. . . . . . . . . . . . . . . . . .  ABSBIT   -----  BIT      008BH  1
IE2. . . . . . . . . . . . . . . . . .  SFR      DATA   U_CHAR   00AFH  1
timesindex . . . . . . . . . . . . . .  EXTERN   XDATA  U_INT    -----  2
B. . . . . . . . . . . . . . . . . . .  SFR      DATA   U_CHAR   00F0H  1
AUXR . . . . . . . . . . . . . . . . .  SFR      DATA   U_CHAR   008EH  1
uint . . . . . . . . . . . . . . . . .  TYPEDEF  -----  U_INT    -----  2
USBADR . . . . . . . . . . . . . . . .  SFR      DATA   U_CHAR   00FCH  1
IAP_CONTR. . . . . . . . . . . . . . .  SFR      DATA   U_CHAR   00C7H  1
USBDAT . . . . . . . . . . . . . . . .  SFR      DATA   U_CHAR   00ECH  1
USBCLK . . . . . . . . . . . . . . . .  SFR      DATA   U_CHAR   00DCH  1
ACC. . . . . . . . . . . . . . . . . .  SFR      DATA   U_CHAR   00E0H  1
ET0. . . . . . . . . . . . . . . . . .  ABSBIT   -----  BIT      00A9H  1
ET1. . . . . . . . . . . . . . . . . .  ABSBIT   -----  BIT      00ABH  1
TF0. . . . . . . . . . . . . . . . . .  ABSBIT   -----  BIT      008DH  1
RSTCFG . . . . . . . . . . . . . . . .  SFR      DATA   U_CHAR   00FFH  1
IP2. . . . . . . . . . . . . . . . . .  SFR      DATA   U_CHAR   00B5H  1
TF1. . . . . . . . . . . . . . . . . .  ABSBIT   -----  BIT      008FH  1
UartSet. . . . . . . . . . . . . . . .  * TAG *  -----  STRUCT   -----  90
  _uartId. . . . . . . . . . . . . . .  MEMBER   -----  U_CHAR   0000H  1
  _uartWrite . . . . . . . . . . . . .  MEMBER   -----  ARRAY    0001H  16
  _uartRead. . . . . . . . . . . . . .  MEMBER   -----  ARRAY    0011H  48
  _uartSign. . . . . . . . . . . . . .  MEMBER   -----  U_CHAR   0041H  1
  _uartStart . . . . . . . . . . . . .  MEMBER   -----  U_CHAR   0042H  1
  _readFlag. . . . . . . . . . . . . .  MEMBER   -----  U_CHAR   0043H  1
  _uartTime. . . . . . . . . . . . . .  MEMBER   -----  U_INT    0044H  2
  busy . . . . . . . . . . . . . . . .  MEMBER   -----  U_CHAR   0046H  1
  _baudRate. . . . . . . . . . . . . .  MEMBER   -----  U_LONG   0047H  4
  UartWriteChar. . . . . . . . . . . .  MEMBER   -----  PTR      004BH  3
C51 COMPILER V9.57.0.0   MAIN                                                              02/19/2022 23:37:23 PAGE 8   

NAME                                    CLASS   MSPACE  TYPE    OFFSET  SIZE
====                                    =====   ======  ====    ======  ====


  UartWriteString. . . . . . . . . . .  MEMBER   -----  PTR      004EH  3
  UartWriteBuffe . . . . . . . . . . .  MEMBER   -----  PTR      0051H  3
  UartRead . . . . . . . . . . . . . .  MEMBER   -----  PTR      0054H  3
  UartReadTime . . . . . . . . . . . .  MEMBER   -----  PTR      0057H  3
USBCON . . . . . . . . . . . . . . . .  SFR      DATA   U_CHAR   00F4H  1
IP3. . . . . . . . . . . . . . . . . .  SFR      DATA   U_CHAR   00DFH  1
RB8. . . . . . . . . . . . . . . . . .  ABSBIT   -----  BIT      009AH  1
TH0. . . . . . . . . . . . . . . . . .  SFR      DATA   U_CHAR   008CH  1
EX0. . . . . . . . . . . . . . . . . .  ABSBIT   -----  BIT      00A8H  1
TH1. . . . . . . . . . . . . . . . . .  SFR      DATA   U_CHAR   008DH  1
IT0. . . . . . . . . . . . . . . . . .  ABSBIT   -----  BIT      0088H  1
T2H. . . . . . . . . . . . . . . . . .  SFR      DATA   U_CHAR   00D6H  1
EX1. . . . . . . . . . . . . . . . . .  ABSBIT   -----  BIT      00AAH  1
TB8. . . . . . . . . . . . . . . . . .  ABSBIT   -----  BIT      009BH  1
IT1. . . . . . . . . . . . . . . . . .  ABSBIT   -----  BIT      008AH  1
IoInit . . . . . . . . . . . . . . . .  PUBLIC   CODE   PROC     0000H  -----
T3H. . . . . . . . . . . . . . . . . .  SFR      DATA   U_CHAR   00D4H  1
P. . . . . . . . . . . . . . . . . . .  ABSBIT   -----  BIT      00D0H  1
T4H. . . . . . . . . . . . . . . . . .  SFR      DATA   U_CHAR   00D2H  1
SM0. . . . . . . . . . . . . . . . . .  ABSBIT   -----  BIT      009FH  1
TL0. . . . . . . . . . . . . . . . . .  SFR      DATA   U_CHAR   008AH  1
SM1. . . . . . . . . . . . . . . . . .  ABSBIT   -----  BIT      009EH  1
TL1. . . . . . . . . . . . . . . . . .  SFR      DATA   U_CHAR   008BH  1
T2L. . . . . . . . . . . . . . . . . .  SFR      DATA   U_CHAR   00D7H  1
SM2. . . . . . . . . . . . . . . . . .  ABSBIT   -----  BIT      009DH  1
LCD. . . . . . . . . . . . . . . . . .  * TAG *  -----  ENUM     -----  -----
T3L. . . . . . . . . . . . . . . . . .  SFR      DATA   U_CHAR   00D5H  1
T4L. . . . . . . . . . . . . . . . . .  SFR      DATA   U_CHAR   00D3H  1
PT0. . . . . . . . . . . . . . . . . .  ABSBIT   -----  BIT      00B9H  1
RS0. . . . . . . . . . . . . . . . . .  ABSBIT   -----  BIT      00D3H  1
PT1. . . . . . . . . . . . . . . . . .  ABSBIT   -----  BIT      00BBH  1
RS1. . . . . . . . . . . . . . . . . .  ABSBIT   -----  BIT      00D4H  1
IAP_DATA . . . . . . . . . . . . . . .  SFR      DATA   U_CHAR   00C2H  1
TR0. . . . . . . . . . . . . . . . . .  ABSBIT   -----  BIT      008CH  1
TR1. . . . . . . . . . . . . . . . . .  ABSBIT   -----  BIT      008EH  1
WDT_CONTR. . . . . . . . . . . . . . .  SFR      DATA   U_CHAR   00C1H  1
PX0. . . . . . . . . . . . . . . . . .  ABSBIT   -----  BIT      00B8H  1
PX1. . . . . . . . . . . . . . . . . .  ABSBIT   -----  BIT      00BAH  1
IRTRIM . . . . . . . . . . . . . . . .  SFR      DATA   U_CHAR   009FH  1
DPH. . . . . . . . . . . . . . . . . .  SFR      DATA   U_CHAR   0083H  1
u16. . . . . . . . . . . . . . . . . .  TYPEDEF  -----  U_INT    -----  2
on . . . . . . . . . . . . . . . . . .  E_CONST  -----  U_CHAR   -----  1
T4T3M. . . . . . . . . . . . . . . . .  SFR      DATA   U_CHAR   00D1H  1
ADC_RESL . . . . . . . . . . . . . . .  SFR      DATA   U_CHAR   00BEH  1
DPL. . . . . . . . . . . . . . . . . .  SFR      DATA   U_CHAR   0082H  1
SPSTAT . . . . . . . . . . . . . . . .  SFR      DATA   U_CHAR   00CDH  1
IPH. . . . . . . . . . . . . . . . . .  SFR      DATA   U_CHAR   00B7H  1
LCDPOWER . . . . . . . . . . . . . . .  ABSBIT   -----  BIT      00A0H  1
S2BUF. . . . . . . . . . . . . . . . .  SFR      DATA   U_CHAR   009BH  1
S3BUF. . . . . . . . . . . . . . . . .  SFR      DATA   U_CHAR   00ADH  1
REN. . . . . . . . . . . . . . . . . .  ABSBIT   -----  BIT      009CH  1
S4BUF. . . . . . . . . . . . . . . . .  SFR      DATA   U_CHAR   0085H  1
LCDBACK. . . . . . . . . . . . . . . .  ABSBIT   -----  BIT      00A1H  1
S2CON. . . . . . . . . . . . . . . . .  SFR      DATA   U_CHAR   009AH  1
DPS. . . . . . . . . . . . . . . . . .  SFR      DATA   U_CHAR   00E3H  1
S3CON. . . . . . . . . . . . . . . . .  SFR      DATA   U_CHAR   00ACH  1
S4CON. . . . . . . . . . . . . . . . .  SFR      DATA   U_CHAR   0084H  1
C51 COMPILER V9.57.0.0   MAIN                                                              02/19/2022 23:37:23 PAGE 9   

NAME                                    CLASS   MSPACE  TYPE    OFFSET  SIZE
====                                    =====   ======  ====    ======  ====


LCDCS. . . . . . . . . . . . . . . . .  ABSBIT   -----  BIT      00C9H  1
AUXINTIF . . . . . . . . . . . . . . .  SFR      DATA   U_CHAR   00EFH  1
LCDIO. . . . . . . . . . . . . . . . .  TYPEDEF  -----  STRUCT   -----  9
  BACK . . . . . . . . . . . . . . . .  MEMBER   -----  PTR      0000H  3
  POWER. . . . . . . . . . . . . . . .  MEMBER   -----  PTR      0003H  3
  RES. . . . . . . . . . . . . . . . .  MEMBER   -----  PTR      0006H  3
wchar_t. . . . . . . . . . . . . . . .  TYPEDEF  -----  CHAR     -----  1
SADEN. . . . . . . . . . . . . . . . .  SFR      DATA   U_CHAR   00B9H  1
uart1. . . . . . . . . . . . . . . . .  EXTERN   XDATA  STRUCT   -----  90
SADDR. . . . . . . . . . . . . . . . .  SFR      DATA   U_CHAR   00A9H  1
uart4. . . . . . . . . . . . . . . . .  EXTERN   XDATA  STRUCT   -----  90
IAP_TRIG . . . . . . . . . . . . . . .  SFR      DATA   U_CHAR   00C6H  1
PWM. . . . . . . . . . . . . . . . . .  ABSBIT   -----  BIT      00B5H  1
F0 . . . . . . . . . . . . . . . . . .  ABSBIT   -----  BIT      00D5H  1
IRCBAND. . . . . . . . . . . . . . . .  SFR      DATA   U_CHAR   009DH  1
F1 . . . . . . . . . . . . . . . . . .  ABSBIT   -----  BIT      00D1H  1
PSW. . . . . . . . . . . . . . . . . .  SFR      DATA   U_CHAR   00D0H  1
SPDAT. . . . . . . . . . . . . . . . .  SFR      DATA   U_CHAR   00CFH  1
P0M0 . . . . . . . . . . . . . . . . .  SFR      DATA   U_CHAR   0094H  1


MODULE INFORMATION:   STATIC OVERLAYABLE
   CODE SIZE        =    176    ----
   CONSTANT SIZE    =   ----    ----
   XDATA SIZE       =   ----    ----
   PDATA SIZE       =   ----    ----
   DATA SIZE        =   ----    ----
   IDATA SIZE       =   ----    ----
   BIT SIZE         =   ----    ----
   EDATA SIZE       =   ----    ----
   HDATA SIZE       =   ----    ----
   XDATA CONST SIZE =   ----    ----
   FAR CONST SIZE   =   ----    ----
END OF MODULE INFORMATION.


C51 COMPILATION COMPLETE.  0 WARNING(S),  0 ERROR(S)
