C51 COMPILER V9.57.0.0   GUI                                                               02/19/2022 23:37:22 PAGE 1   


C51 COMPILER V9.57.0.0, COMPILATION OF MODULE GUI
OBJECT MODULE PLACED IN .\build\Target 1\__\APP\GUI\GUI.o
COMPILER INVOKED BY: D:\keil5\C51\BIN\C51.exe .\..\APP\GUI\GUI.C PRINT(.\build\Target 1\__\APP\GUI\GUI.lst) OMF2 TABS(4)
                    - CODE NOCOND SYMBOLS OPTIMIZE(8,SPEED) SMALL ROM(LARGE) INCDIR(D:\keil5\C51\INC\Atmel;.\..\APP;.\..;.\..\APP\ADC;.\..\AP
                    -P\Eeprom;.\..\APP\Fingerprint;.\..\APP\System;.\..\APP\Uart;.\..\APP\WIFI;.\..\APP\LCD;.\..\APP\SPI;.\..\APP\GUI;.\..\AP
                    -P\Time;.\..\APP\H;D:\keil5\C51\INC) DEFINE(__UVISION_VERSION=526) OBJECT(.\build\Target 1\__\APP\GUI\GUI.o)

line level    source

   1          #include "GUI.h"
   2          #include "ST7789V.h"
   3          #include "WordStock.h"
   4          
   5          void GUI_Fill(uint x1, uint y1, uint x2, uint y2, uint color)
   6          {
   7   1          uint xdata i, j;
   8   1          LCD_Addr_Set(x1, y1, x2 - 1, y2 - 1); //设置显示范围
   9   1          for (i = y1; i < y2; i++)
  10   1          {
  11   2              for (j = x1; j < x2; j++)
  12   2              {
  13   3                  LCD_Write_Word(color);
  14   3              }
  15   2          }
  16   1      }
  17          
  18          void GUI_DrawPoint(uint x1, uint y1, uint color)
  19          {
  20   1          LCD_Addr_Set(x1, y1, x1, y1); //设置光标位置
  21   1          LCD_Write_Word(color);
  22   1      }
  23          
  24          void GUI_DrawLine(uint x1, uint y1, uint x2, uint y2, uint color)
  25          {
  26   1          uint xdata t;
  27   1          int xdata xerr = 0, yerr = 0, delta_x, delta_y, distance;
  28   1          int xdata incx, incy, uRow, uCol;
  29   1          delta_x = x2 - x1; //计算坐标增量
  30   1          delta_y = y2 - y1;
  31   1          uRow = x1; //画线起点坐标
  32   1          uCol = y1;
  33   1          if (delta_x > 0)
  34   1              incx = 1; //设置单步方向
  35   1          else if (delta_x == 0)
  36   1              incx = 0; //垂直线
  37   1          else
  38   1          {
  39   2              incx = -1;
  40   2              delta_x = -delta_x;
  41   2          }
  42   1          if (delta_y > 0)
  43   1              incy = 1;
  44   1          else if (delta_y == 0)
  45   1              incy = 0; //水平线
  46   1          else
  47   1          {
  48   2              incy = -1;
  49   2              delta_y = -delta_y;
  50   2          }
  51   1          if (delta_x > delta_y)
  52   1              distance = delta_x; //选取基本增量坐标轴
C51 COMPILER V9.57.0.0   GUI                                                               02/19/2022 23:37:22 PAGE 2   

  53   1          else
  54   1              distance = delta_y;
  55   1          for (t = 0; t < distance + 1; t++)
  56   1          {
  57   2              GUI_DrawPoint(uRow, uCol, color); //画点
  58   2              xerr += delta_x;
  59   2              yerr += delta_y;
  60   2              if (xerr > distance)
  61   2              {
  62   3                  xerr -= distance;
  63   3                  uRow += incx;
  64   3              }
  65   2              if (yerr > distance)
  66   2              {
  67   3                  yerr -= distance;
  68   3                  uCol += incy;
  69   3              }
  70   2          }
  71   1      }
  72          
  73          void GUI_DrawRectangle(uint x1, uint y1, uint x2, uint y2, uint color)
  74          {
  75   1          GUI_DrawLine(x1, y1, x2, y1, color);
  76   1          GUI_DrawLine(x1, y1, x1, y2, color);
  77   1          GUI_DrawLine(x1, y2, x2, y2, color);
  78   1          GUI_DrawLine(x2, y1, x2, y2, color);
  79   1      }
  80          
  81          void GUI_DrawCircle(uint x1, uint y1, uchar r, uint color)
  82          {
  83   1          int xdata a, b;
  84   1          a = 0;
  85   1          b = r;
  86   1          while (a <= b)
  87   1          {
  88   2              GUI_DrawPoint(x1 - b, y1 - a, color); //3
  89   2              GUI_DrawPoint(x1 + b, y1 - a, color); //0
  90   2              GUI_DrawPoint(x1 - a, y1 + b, color); //1
  91   2              GUI_DrawPoint(x1 - a, y1 - b, color); //2
  92   2              GUI_DrawPoint(x1 + b, y1 + a, color); //4
  93   2              GUI_DrawPoint(x1 + a, y1 - b, color); //5
  94   2              GUI_DrawPoint(x1 + a, y1 + b, color); //6
  95   2              GUI_DrawPoint(x1 - b, y1 + a, color); //7
  96   2              a++;
  97   2              if ((a * a + b * b) > (r * r)) //判断要画的点是否过远
  98   2              {
  99   3                  b--;
 100   3              }
 101   2          }
 102   1      }
 103          
 104          /******************************************************************************
 105                函数说明：显示汉字串
 106                入口数据：x,y显示坐标
 107                          *s 要显示的汉字串
 108                          fc 字的颜色
 109                          bc 字的背景色
 110                          sizey 字号 可选 16 24 32
 111                          mode:  0非叠加模式  1叠加模式
 112                返回值：  无
 113          ******************************************************************************/
 114          void GUI_ShowChinese(u16 x, u16 y, u8 *s, u16 fc, u16 bc, u8 sizey, u8 mode)
C51 COMPILER V9.57.0.0   GUI                                                               02/19/2022 23:37:22 PAGE 3   

 115          {
 116   1          while (*s != 0)
 117   1          {
 118   2              if (sizey == 12)
 119   2                  GUI_ShowChinese12x12(x, y, s, fc, bc, sizey, mode);
 120   2              else if (sizey == 16)
 121   2                  GUI_ShowChinese16x16(x, y, s, fc, bc, sizey, mode);
 122   2              else if (sizey == 24)
 123   2                  GUI_ShowChinese24x24(x, y, s, fc, bc, sizey, mode);
 124   2              else if (sizey == 32)
 125   2                  GUI_ShowChinese32x32(x, y, s, fc, bc, sizey, mode);
 126   2              else
 127   2                  return;
 128   2              s += 2;
 129   2              x += sizey;
 130   2          }
 131   1      }
 132          
 133          /******************************************************************************
 134                函数说明：显示单个12x12汉字
 135                入口数据：x,y显示坐标
 136                          *s 要显示的汉字
 137                          fc 字的颜色
 138                          bc 字的背景色
 139                          sizey 字号
 140                          mode:  0非叠加模式  1叠加模式
 141                返回值：  无
 142          ******************************************************************************/
 143          void GUI_ShowChinese12x12(u16 x, u16 y, u8 *s, u16 fc, u16 bc, u8 sizey, u8 mode)
 144          {
 145   1          u8 xdata i, j, m = 0;
 146   1          u16 xdata k;
 147   1          u16 xdata HZnum;       //汉字数目
 148   1          u16 xdata TypefaceNum; //一个字符所占字节大小
 149   1          u16 xdata x0 = x;
 150   1          TypefaceNum = (sizey / 8 + ((sizey % 8) ? 1 : 0)) * sizey;
 151   1      
 152   1          HZnum = sizeof(tfont12) / sizeof(typFNT_GB12); //统计汉字数目
 153   1          for (k = 0; k < HZnum; k++)
 154   1          {
 155   2              if ((tfont12[k].Index[0] == *(s)) && (tfont12[k].Index[1] == *(s + 1)))
 156   2              {
 157   3                  LCD_Addr_Set(x, y, x + sizey - 1, y + sizey - 1);
 158   3                  for (i = 0; i < TypefaceNum; i++)
 159   3                  {
 160   4                      for (j = 0; j < 8; j++)
 161   4                      {
 162   5                          if (!mode) //非叠加方式
 163   5                          {
 164   6                              if (tfont12[k].Msk[i] & (0x01 << j))
 165   6                                  LCD_Write_Word(fc);
 166   6                              else
 167   6                                  LCD_Write_Word(bc);
 168   6                              m++;
 169   6                              if (m % sizey == 0)
 170   6                              {
 171   7                                  m = 0;
 172   7                                  break;
 173   7                              }
 174   6                          }
 175   5                          else //叠加方式
 176   5                          {
C51 COMPILER V9.57.0.0   GUI                                                               02/19/2022 23:37:22 PAGE 4   

 177   6                              if (tfont12[k].Msk[i] & (0x01 << j))
 178   6                                  GUI_DrawPoint(x, y, fc); //画一个点
 179   6                              x++;
 180   6                              if ((x - x0) == sizey)
 181   6                              {
 182   7                                  x = x0;
 183   7                                  y++;
 184   7                                  break;
 185   7                              }
 186   6                          }
 187   5                      }
 188   4                  }
 189   3              }
 190   2              continue; //查找到对应点阵字库立即退出，防止多个汉字重复取模带来影响
 191   2          }
 192   1      }
 193          
 194          /******************************************************************************
 195                函数说明：显示单个16x16汉字
 196                入口数据：x,y显示坐标
 197                          *s 要显示的汉字
 198                          fc 字的颜色
 199                          bc 字的背景色
 200                          sizey 字号
 201                          mode:  0非叠加模式  1叠加模式
 202                返回值：  无
 203          ******************************************************************************/
 204          void GUI_ShowChinese16x16(u16 x, u16 y, u8 *s, u16 fc, u16 bc, u8 sizey, u8 mode)
 205          {
 206   1          u8 xdata i, j, m = 0;
 207   1          u16 xdata k;
 208   1          u16 xdata HZnum;       //汉字数目
 209   1          u16 xdata TypefaceNum; //一个字符所占字节大小
 210   1          u16 xdata x0 = x;
 211   1          TypefaceNum = (sizey / 8 + ((sizey % 8) ? 1 : 0)) * sizey;
 212   1          HZnum = sizeof(tfont16) / sizeof(typFNT_GB16); //统计汉字数目
 213   1          for (k = 0; k < HZnum; k++)
 214   1          {
 215   2              if ((tfont16[k].Index[0] == *(s)) && (tfont16[k].Index[1] == *(s + 1)))
 216   2              {
 217   3                  LCD_Addr_Set(x, y, x + sizey - 1, y + sizey - 1);
 218   3                  for (i = 0; i < TypefaceNum; i++)
 219   3                  {
 220   4                      for (j = 0; j < 8; j++)
 221   4                      {
 222   5                          if (!mode) //非叠加方式
 223   5                          {
 224   6                              if (tfont16[k].Msk[i] & (0x01 << j))
 225   6                                  LCD_Write_Word(fc);
 226   6                              else
 227   6                                  LCD_Write_Word(bc);
 228   6                              m++;
 229   6                              if (m % sizey == 0)
 230   6                              {
 231   7                                  m = 0;
 232   7                                  break;
 233   7                              }
 234   6                          }
 235   5                          else //叠加方式
 236   5                          {
 237   6                              if (tfont16[k].Msk[i] & (0x01 << j))
 238   6                                  GUI_DrawPoint(x, y, fc); //画一个点
C51 COMPILER V9.57.0.0   GUI                                                               02/19/2022 23:37:22 PAGE 5   

 239   6                              x++;
 240   6                              if ((x - x0) == sizey)
 241   6                              {
 242   7                                  x = x0;
 243   7                                  y++;
 244   7                                  break;
 245   7                              }
 246   6                          }
 247   5                      }
 248   4                  }
 249   3              }
 250   2              continue; //查找到对应点阵字库立即退出，防止多个汉字重复取模带来影响
 251   2          }
 252   1      }
 253          
 254          /******************************************************************************
 255                函数说明：显示单个24x24汉字
 256                入口数据：x,y显示坐标
 257                          *s 要显示的汉字
 258                          fc 字的颜色
 259                          bc 字的背景色
 260                          sizey 字号
 261                          mode:  0非叠加模式  1叠加模式
 262                返回值：  无
 263          ******************************************************************************/
 264          void GUI_ShowChinese24x24(u16 x, u16 y, u8 *s, u16 fc, u16 bc, u8 sizey, u8 mode)
 265          {
 266   1          u8 xdata i, j, m = 0;
 267   1          u16 xdata k;
 268   1          u16 xdata HZnum;       //汉字数目
 269   1          u16 xdata TypefaceNum; //一个字符所占字节大小
 270   1          u16 xdata x0 = x;
 271   1          TypefaceNum = (sizey / 8 + ((sizey % 8) ? 1 : 0)) * sizey;
 272   1          HZnum = sizeof(tfont24) / sizeof(typFNT_GB24); //统计汉字数目
 273   1          for (k = 0; k < HZnum; k++)
 274   1          {
 275   2              if ((tfont24[k].Index[0] == *(s)) && (tfont24[k].Index[1] == *(s + 1)))
 276   2              {
 277   3                  LCD_Addr_Set(x, y, x + sizey - 1, y + sizey - 1);
 278   3                  for (i = 0; i < TypefaceNum; i++)
 279   3                  {
 280   4                      for (j = 0; j < 8; j++)
 281   4                      {
 282   5                          if (!mode) //非叠加方式
 283   5                          {
 284   6                              if (tfont24[k].Msk[i] & (0x01 << j))
 285   6                                  LCD_Write_Word(fc);
 286   6                              else
 287   6                                  LCD_Write_Word(bc);
 288   6                              m++;
 289   6                              if (m % sizey == 0)
 290   6                              {
 291   7                                  m = 0;
 292   7                                  break;
 293   7                              }
 294   6                          }
 295   5                          else //叠加方式
 296   5                          {
 297   6                              if (tfont24[k].Msk[i] & (0x01 << j))
 298   6                                  GUI_DrawPoint(x, y, fc); //画一个点
 299   6                              x++;
 300   6                              if ((x - x0) == sizey)
C51 COMPILER V9.57.0.0   GUI                                                               02/19/2022 23:37:22 PAGE 6   

 301   6                              {
 302   7                                  x = x0;
 303   7                                  y++;
 304   7                                  break;
 305   7                              }
 306   6                          }
 307   5                      }
 308   4                  }
 309   3              }
 310   2              continue; //查找到对应点阵字库立即退出，防止多个汉字重复取模带来影响
 311   2          }
 312   1      }
 313          
 314          /******************************************************************************
 315                函数说明：显示单个32x32汉字
 316                入口数据：x,y显示坐标
 317                          *s 要显示的汉字
 318                          fc 字的颜色
 319                          bc 字的背景色
 320                          sizey 字号
 321                          mode:  0非叠加模式  1叠加模式
 322                返回值：  无
 323          ******************************************************************************/
 324          void GUI_ShowChinese32x32(u16 x, u16 y, u8 *s, u16 fc, u16 bc, u8 sizey, u8 mode)
 325          {
 326   1          u8 xdata i, j, m = 0;
 327   1          u16 xdata k;
 328   1          u16 xdata HZnum;       //汉字数目
 329   1          u16 xdata TypefaceNum; //一个字符所占字节大小
 330   1          u16 xdata x0 = x;
 331   1          TypefaceNum = (sizey / 8 + ((sizey % 8) ? 1 : 0)) * sizey;
 332   1          HZnum = sizeof(tfont32) / sizeof(typFNT_GB32); //统计汉字数目
 333   1          for (k = 0; k < HZnum; k++)
 334   1          {
 335   2              if ((tfont32[k].Index[0] == *(s)) && (tfont32[k].Index[1] == *(s + 1)))
 336   2              {
 337   3                  LCD_Addr_Set(x, y, x + sizey - 1, y + sizey - 1);
 338   3                  for (i = 0; i < TypefaceNum; i++)
 339   3                  {
 340   4                      for (j = 0; j < 8; j++)
 341   4                      {
 342   5                          if (!mode) //非叠加方式
 343   5                          {
 344   6                              if (tfont32[k].Msk[i] & (0x01 << j))
 345   6                                  LCD_Write_Word(fc);
 346   6                              else
 347   6                                  LCD_Write_Word(bc);
 348   6                              m++;
 349   6                              if (m % sizey == 0)
 350   6                              {
 351   7                                  m = 0;
 352   7                                  break;
 353   7                              }
 354   6                          }
 355   5                          else //叠加方式
 356   5                          {
 357   6                              if (tfont32[k].Msk[i] & (0x01 << j))
 358   6                                  GUI_DrawPoint(x, y, fc); //画一个点
 359   6                              x++;
 360   6                              if ((x - x0) == sizey)
 361   6                              {
 362   7                                  x = x0;
C51 COMPILER V9.57.0.0   GUI                                                               02/19/2022 23:37:22 PAGE 7   

 363   7                                  y++;
 364   7                                  break;
 365   7                              }
 366   6                          }
 367   5                      }
 368   4                  }
 369   3              }
 370   2              continue; //查找到对应点阵字库立即退出，防止多个汉字重复取模带来影响
 371   2          }
 372   1      }
 373          
 374          /******************************************************************************
 375                函数说明：显示单个字符
 376                入口数据：x,y显示坐标
 377                          num 要显示的字符
 378                          fc 字的颜色
 379                          bc 字的背景色
 380                          sizey 字号
 381                          mode:  0非叠加模式  1叠加模式
 382                返回值：  无
 383          ******************************************************************************/
 384          void GUI_ShowChar(u16 x, u16 y, u8 num, u16 fc, u16 bc, u8 sizey, u8 mode)
 385          {
 386   1          u8 xdata temp, sizex, t, m = 0;
 387   1          u16 xdata i, TypefaceNum; //一个字符所占字节大小
 388   1          u16 xdata x0 = x;
 389   1          sizex = sizey / 2;
 390   1          TypefaceNum = (sizex / 8 + ((sizex % 8) ? 1 : 0)) * sizey;
 391   1          num = num - ' ';                                  //得到偏移后的值
 392   1          LCD_Addr_Set(x, y, x + sizex - 1, y + sizey - 1); //设置光标位置
 393   1          for (i = 0; i < TypefaceNum; i++)
 394   1          {
 395   2              if (sizey == 12)
 396   2                  temp = ascii_1206[num][i]; //调用6x12字体
 397   2              else if (sizey == 16)
 398   2                  temp = ascii_1608[num][i]; //调用8x16字体
 399   2              else if (sizey == 24)
 400   2                  temp = ascii_2412[num][i]; //调用12x24字体
 401   2              else if (sizey == 32)
 402   2                  temp = ascii_3216[num][i]; //调用16x32字体
 403   2              else
 404   2                  return;
 405   2              for (t = 0; t < 8; t++)
 406   2              {
 407   3                  if (!mode) //非叠加模式
 408   3                  {
 409   4                      if (temp & (0x01 << t))
 410   4                          LCD_Write_Word(fc);
 411   4                      else
 412   4                          LCD_Write_Word(bc);
 413   4                      m++;
 414   4                      if (m % sizex == 0)
 415   4                      {
 416   5                          m = 0;
 417   5                          break;
 418   5                      }
 419   4                  }
 420   3                  else //叠加模式
 421   3                  {
 422   4                      if (temp & (0x01 << t))
 423   4                          GUI_DrawPoint(x, y, fc); //画一个点
 424   4                      x++;
C51 COMPILER V9.57.0.0   GUI                                                               02/19/2022 23:37:22 PAGE 8   

 425   4                      if ((x - x0) == sizex)
 426   4                      {
 427   5                          x = x0;
 428   5                          y++;
 429   5                          break;
 430   5                      }
 431   4                  }
 432   3              }
 433   2          }
 434   1      }
 435          
 436          /******************************************************************************
 437                函数说明：显示字符串
 438                入口数据：x,y显示坐标
 439                          *p 要显示的字符串
 440                          fc 字的颜色
 441                          bc 字的背景色
 442                          sizey 字号
 443                          mode:  0非叠加模式  1叠加模式
 444                返回值：  无
 445          ******************************************************************************/
 446          void GUI_ShowString(u16 x, u16 y, const u8 *p, u16 fc, u16 bc, u8 sizey, u8 mode)
 447          {
 448   1          while (*p != '\0')
 449   1          {
 450   2              GUI_ShowChar(x, y, *p, fc, bc, sizey, mode);
 451   2              x += sizey / 2;
 452   2              p++;
 453   2          }
 454   1      }
C51 COMPILER V9.57.0.0   GUI                                                               02/19/2022 23:37:22 PAGE 9   

ASSEMBLY LISTING OF GENERATED OBJECT CODE


             ; FUNCTION _GUI_Fill (BEGIN)
                                           ; SOURCE LINE # 5
0000 8E00        R     MOV     x1,R6
0002 8F00        R     MOV     x1+01H,R7
0004 8C00        R     MOV     y1,R4
0006 8D00        R     MOV     y1+01H,R5
0008 8A00        R     MOV     x2,R2
000A 8B00        R     MOV     x2+01H,R3
                                           ; SOURCE LINE # 6
                                           ; SOURCE LINE # 8
000C E500        R     MOV     A,x2+01H
000E 24FF              ADD     A,#0FFH
0010 FB                MOV     R3,A
0011 E500        R     MOV     A,x2
0013 34FF              ADDC    A,#0FFH
0015 FA                MOV     R2,A
0016 E500        R     MOV     A,y2+01H
0018 24FF              ADD     A,#0FFH
001A F500        E     MOV     ?_LCD_Addr_Set?BYTE+07H,A
001C E500        R     MOV     A,y2
001E 34FF              ADDC    A,#0FFH
0020 F500        E     MOV     ?_LCD_Addr_Set?BYTE+06H,A
0022 120000      E     LCALL   _LCD_Addr_Set
                                           ; SOURCE LINE # 9
0025 900000      R     MOV     DPTR,#i
0028 E500        R     MOV     A,y1
002A F0                MOVX    @DPTR,A
002B A3                INC     DPTR
002C E500        R     MOV     A,y1+01H
002E F0                MOVX    @DPTR,A
002F         ?C0001:
002F C3                CLR     C
0030 900000      R     MOV     DPTR,#i+01H
0033 E0                MOVX    A,@DPTR
0034 9500        R     SUBB    A,y2+01H
0036 900000      R     MOV     DPTR,#i
0039 E0                MOVX    A,@DPTR
003A 9500        R     SUBB    A,y2
003C 5040              JNC     ?C0007
                                           ; SOURCE LINE # 10
                                           ; SOURCE LINE # 11
003E 900000      R     MOV     DPTR,#j
0041 E500        R     MOV     A,x1
0043 F0                MOVX    @DPTR,A
0044 A3                INC     DPTR
0045 E500        R     MOV     A,x1+01H
0047 F0                MOVX    @DPTR,A
0048         ?C0004:
0048 C3                CLR     C
0049 900000      R     MOV     DPTR,#j+01H
004C E0                MOVX    A,@DPTR
004D 9500        R     SUBB    A,x2+01H
004F 900000      R     MOV     DPTR,#j
0052 E0                MOVX    A,@DPTR
0053 9500        R     SUBB    A,x2
0055 5017              JNC     ?C0003
                                           ; SOURCE LINE # 12
                                           ; SOURCE LINE # 13
0057 AF00        R     MOV     R7,color+01H
C51 COMPILER V9.57.0.0   GUI                                                               02/19/2022 23:37:22 PAGE 10  

0059 AE00        R     MOV     R6,color
005B 120000      E     LCALL   _LCD_Write_Word
                                           ; SOURCE LINE # 14
005E 900000      R     MOV     DPTR,#j+01H
0061 E0                MOVX    A,@DPTR
0062 04                INC     A
0063 F0                MOVX    @DPTR,A
0064 70E2              JNZ     ?C0004
0066 900000      R     MOV     DPTR,#j
0069 E0                MOVX    A,@DPTR
006A 04                INC     A
006B F0                MOVX    @DPTR,A
006C         ?C0148:
006C 80DA              SJMP    ?C0004
                                           ; SOURCE LINE # 15
006E         ?C0003:
006E 900000      R     MOV     DPTR,#i+01H
0071 E0                MOVX    A,@DPTR
0072 04                INC     A
0073 F0                MOVX    @DPTR,A
0074 70B9              JNZ     ?C0001
0076 900000      R     MOV     DPTR,#i
0079 E0                MOVX    A,@DPTR
007A 04                INC     A
007B F0                MOVX    @DPTR,A
007C         ?C0149:
007C 80B1              SJMP    ?C0001
                                           ; SOURCE LINE # 16
007E         ?C0007:
007E 22                RET     
             ; FUNCTION _GUI_Fill (END)

             ; FUNCTION L?0200 (BEGIN)
0000 3500        R     ADDC    A,x1
0002 FE                MOV     R6,A
0003         L?0201:
0003 E0                MOVX    A,@DPTR
0004 FC                MOV     R4,A
0005 A3                INC     DPTR
0006 E0                MOVX    A,@DPTR
0007 FD                MOV     R5,A
0008         L?0202:
0008 C3                CLR     C
0009 E500        R     MOV     A,y1+01H
000B 9D                SUBB    A,R5
000C FD                MOV     R5,A
000D E500        R     MOV     A,y1
000F 9C                SUBB    A,R4
0010         L?0203:
0010 FC                MOV     R4,A
0011 AB00        R     MOV     R3,color+01H
0013 AA00        R     MOV     R2,color
             ; FUNCTION _GUI_DrawPoint (BEGIN)
                                           ; SOURCE LINE # 18
0015 8A00        R     MOV     color,R2
0017 8B00        R     MOV     color+01H,R3
;---- Variable 'y1' assigned to Register 'R4/R5' ----
;---- Variable 'x1' assigned to Register 'R6/R7' ----
                                           ; SOURCE LINE # 19
                                           ; SOURCE LINE # 20
0019 AB07              MOV     R3,AR7
001B AA06              MOV     R2,AR6
C51 COMPILER V9.57.0.0   GUI                                                               02/19/2022 23:37:22 PAGE 11  

001D 8C00        E     MOV     ?_LCD_Addr_Set?BYTE+06H,R4
001F 8D00        E     MOV     ?_LCD_Addr_Set?BYTE+07H,R5
0021 120000      E     LCALL   _LCD_Addr_Set
                                           ; SOURCE LINE # 21
0024 AF00        R     MOV     R7,color+01H
0026 AE00        R     MOV     R6,color
0028 020000      E     LJMP    _LCD_Write_Word
             ; FUNCTION _GUI_DrawPoint (END)

             ; FUNCTION _GUI_DrawLine (BEGIN)
                                           ; SOURCE LINE # 24
0000 8E00        R     MOV     x1,R6
0002 8F00        R     MOV     x1+01H,R7
;---- Variable 'y1' assigned to Register 'R4/R5' ----
;---- Variable 'x2' assigned to Register 'R2/R3' ----
                                           ; SOURCE LINE # 25
                                           ; SOURCE LINE # 27
0004 E4                CLR     A
0005 900000      R     MOV     DPTR,#xerr
0008 F0                MOVX    @DPTR,A
0009 A3                INC     DPTR
000A F0                MOVX    @DPTR,A
000B A3                INC     DPTR
000C F0                MOVX    @DPTR,A
000D A3                INC     DPTR
000E F0                MOVX    @DPTR,A
                                           ; SOURCE LINE # 29
000F C3                CLR     C
0010 EB                MOV     A,R3
0011 9500        R     SUBB    A,x1+01H
0013 FF                MOV     R7,A
0014 EA                MOV     A,R2
0015 9500        R     SUBB    A,x1
0017 FE                MOV     R6,A
0018 A3                INC     DPTR
0019 F0                MOVX    @DPTR,A
001A A3                INC     DPTR
001B EF                MOV     A,R7
001C F0                MOVX    @DPTR,A
                                           ; SOURCE LINE # 30
001D C3                CLR     C
001E E500        R     MOV     A,y2+01H
0020 9D                SUBB    A,R5
0021 900000      R     MOV     DPTR,#delta_y+01H
0024 F0                MOVX    @DPTR,A
0025 E500        R     MOV     A,y2
0027 9C                SUBB    A,R4
0028 900000      R     MOV     DPTR,#delta_y
002B F0                MOVX    @DPTR,A
                                           ; SOURCE LINE # 31
002C 900000      R     MOV     DPTR,#uRow
002F E500        R     MOV     A,x1
0031 F0                MOVX    @DPTR,A
0032 A3                INC     DPTR
0033 E500        R     MOV     A,x1+01H
0035 F0                MOVX    @DPTR,A
                                           ; SOURCE LINE # 32
0036 A3                INC     DPTR
0037 EC                MOV     A,R4
0038 F0                MOVX    @DPTR,A
0039 A3                INC     DPTR
003A ED                MOV     A,R5
C51 COMPILER V9.57.0.0   GUI                                                               02/19/2022 23:37:22 PAGE 12  

003B F0                MOVX    @DPTR,A
                                           ; SOURCE LINE # 33
003C D3                SETB    C
003D EF                MOV     A,R7
003E 9400              SUBB    A,#00H
0040 EE                MOV     A,R6
0041 6480              XRL     A,#080H
0043 9480              SUBB    A,#080H
0045 400A              JC      ?C0009
                                           ; SOURCE LINE # 34
0047 900000      R     MOV     DPTR,#incx
004A E4                CLR     A
004B F0                MOVX    @DPTR,A
004C A3                INC     DPTR
004D 04                INC     A
004E F0                MOVX    @DPTR,A
004F 8028              SJMP    ?C0010
0051         ?C0009:
                                           ; SOURCE LINE # 35
0051 900000      R     MOV     DPTR,#delta_x
0054 E0                MOVX    A,@DPTR
0055 FE                MOV     R6,A
0056 A3                INC     DPTR
0057 E0                MOVX    A,@DPTR
0058 FF                MOV     R7,A
0059 4E                ORL     A,R6
005A 7008              JNZ     ?C0011
                                           ; SOURCE LINE # 36
005C 900000      R     MOV     DPTR,#incx
005F F0                MOVX    @DPTR,A
0060 A3                INC     DPTR
0061 F0                MOVX    @DPTR,A
0062 8015              SJMP    ?C0010
0064         ?C0011:
                                           ; SOURCE LINE # 38
                                           ; SOURCE LINE # 39
0064 74FF              MOV     A,#0FFH
0066 900000      R     MOV     DPTR,#incx
0069 F0                MOVX    @DPTR,A
006A A3                INC     DPTR
006B F0                MOVX    @DPTR,A
                                           ; SOURCE LINE # 40
006C C3                CLR     C
006D E4                CLR     A
006E 9F                SUBB    A,R7
006F FF                MOV     R7,A
0070 E4                CLR     A
0071 9E                SUBB    A,R6
0072 900000      R     MOV     DPTR,#delta_x
0075 F0                MOVX    @DPTR,A
0076 A3                INC     DPTR
0077 EF                MOV     A,R7
0078 F0                MOVX    @DPTR,A
                                           ; SOURCE LINE # 41
0079         ?C0010:
                                           ; SOURCE LINE # 42
0079 900000      R     MOV     DPTR,#delta_y
007C E0                MOVX    A,@DPTR
007D FE                MOV     R6,A
007E A3                INC     DPTR
007F E0                MOVX    A,@DPTR
0080 FF                MOV     R7,A
C51 COMPILER V9.57.0.0   GUI                                                               02/19/2022 23:37:22 PAGE 13  

0081 D3                SETB    C
0082 9400              SUBB    A,#00H
0084 EE                MOV     A,R6
0085 6480              XRL     A,#080H
0087 9480              SUBB    A,#080H
0089 400A              JC      ?C0013
                                           ; SOURCE LINE # 43
008B 900000      R     MOV     DPTR,#incy
008E E4                CLR     A
008F F0                MOVX    @DPTR,A
0090 A3                INC     DPTR
0091 04                INC     A
0092 F0                MOVX    @DPTR,A
0093 8021              SJMP    ?C0014
0095         ?C0013:
                                           ; SOURCE LINE # 44
0095 EF                MOV     A,R7
0096 4E                ORL     A,R6
0097 7008              JNZ     ?C0015
                                           ; SOURCE LINE # 45
0099 900000      R     MOV     DPTR,#incy
009C F0                MOVX    @DPTR,A
009D A3                INC     DPTR
009E F0                MOVX    @DPTR,A
009F 8015              SJMP    ?C0014
00A1         ?C0015:
                                           ; SOURCE LINE # 47
                                           ; SOURCE LINE # 48
00A1 74FF              MOV     A,#0FFH
00A3 900000      R     MOV     DPTR,#incy
00A6 F0                MOVX    @DPTR,A
00A7 A3                INC     DPTR
00A8 F0                MOVX    @DPTR,A
                                           ; SOURCE LINE # 49
00A9 C3                CLR     C
00AA E4                CLR     A
00AB 9F                SUBB    A,R7
00AC FF                MOV     R7,A
00AD E4                CLR     A
00AE 9E                SUBB    A,R6
00AF 900000      R     MOV     DPTR,#delta_y
00B2 F0                MOVX    @DPTR,A
00B3 A3                INC     DPTR
00B4 EF                MOV     A,R7
00B5 F0                MOVX    @DPTR,A
                                           ; SOURCE LINE # 50
00B6         ?C0014:
                                           ; SOURCE LINE # 51
00B6 900000      R     MOV     DPTR,#delta_y
00B9 E0                MOVX    A,@DPTR
00BA FE                MOV     R6,A
00BB A3                INC     DPTR
00BC E0                MOVX    A,@DPTR
00BD FF                MOV     R7,A
00BE 900000      R     MOV     DPTR,#delta_x
00C1 E0                MOVX    A,@DPTR
00C2 FC                MOV     R4,A
00C3 A3                INC     DPTR
00C4 E0                MOVX    A,@DPTR
00C5 FD                MOV     R5,A
00C6 D3                SETB    C
00C7 9F                SUBB    A,R7
C51 COMPILER V9.57.0.0   GUI                                                               02/19/2022 23:37:22 PAGE 14  

00C8 EE                MOV     A,R6
00C9 6480              XRL     A,#080H
00CB F8                MOV     R0,A
00CC EC                MOV     A,R4
00CD 6480              XRL     A,#080H
00CF 98                SUBB    A,R0
00D0 900000      R     MOV     DPTR,#distance
00D3 4007              JC      ?C0017
                                           ; SOURCE LINE # 52
00D5 EC                MOV     A,R4
00D6 F0                MOVX    @DPTR,A
00D7 A3                INC     DPTR
00D8 ED                MOV     A,R5
00D9 F0                MOVX    @DPTR,A
00DA 8005              SJMP    ?C0018
00DC         ?C0017:
                                           ; SOURCE LINE # 54
00DC EE                MOV     A,R6
00DD F0                MOVX    @DPTR,A
00DE A3                INC     DPTR
00DF EF                MOV     A,R7
00E0 F0                MOVX    @DPTR,A
00E1         ?C0018:
                                           ; SOURCE LINE # 55
00E1 E4                CLR     A
00E2 900000      R     MOV     DPTR,#t
00E5 F0                MOVX    @DPTR,A
00E6 A3                INC     DPTR
00E7 F0                MOVX    @DPTR,A
00E8         ?C0019:
00E8 900000      R     MOV     DPTR,#distance+01H
00EB E0                MOVX    A,@DPTR
00EC 2401              ADD     A,#01H
00EE FF                MOV     R7,A
00EF 900000      R     MOV     DPTR,#distance
00F2 E0                MOVX    A,@DPTR
00F3 3400              ADDC    A,#00H
00F5 FE                MOV     R6,A
00F6 C3                CLR     C
00F7 900000      R     MOV     DPTR,#t+01H
00FA E0                MOVX    A,@DPTR
00FB 9F                SUBB    A,R7
00FC 900000      R     MOV     DPTR,#t
00FF E0                MOVX    A,@DPTR
0100 9E                SUBB    A,R6
0101 4003              JC      $ + 5H
0103 020000      R     LJMP    ?C0024
                                           ; SOURCE LINE # 56
                                           ; SOURCE LINE # 57
0106 900000      R     MOV     DPTR,#uRow
0109 E0                MOVX    A,@DPTR
010A FE                MOV     R6,A
010B A3                INC     DPTR
010C E0                MOVX    A,@DPTR
010D FF                MOV     R7,A
010E A3                INC     DPTR
010F E0                MOVX    A,@DPTR
0110 FC                MOV     R4,A
0111 A3                INC     DPTR
0112 E0                MOVX    A,@DPTR
0113 FD                MOV     R5,A
0114 AB00        R     MOV     R3,color+01H
C51 COMPILER V9.57.0.0   GUI                                                               02/19/2022 23:37:22 PAGE 15  

0116 AA00        R     MOV     R2,color
0118 120000      R     LCALL   _GUI_DrawPoint
                                           ; SOURCE LINE # 58
011B 900000      R     MOV     DPTR,#delta_x
011E E0                MOVX    A,@DPTR
011F FE                MOV     R6,A
0120 A3                INC     DPTR
0121 E0                MOVX    A,@DPTR
0122 FF                MOV     R7,A
0123 900000      R     MOV     DPTR,#xerr+01H
0126 E0                MOVX    A,@DPTR
0127 2F                ADD     A,R7
0128 F0                MOVX    @DPTR,A
0129 900000      R     MOV     DPTR,#xerr
012C E0                MOVX    A,@DPTR
012D 3E                ADDC    A,R6
012E F0                MOVX    @DPTR,A
                                           ; SOURCE LINE # 59
012F 900000      R     MOV     DPTR,#delta_y
0132 E0                MOVX    A,@DPTR
0133 FE                MOV     R6,A
0134 A3                INC     DPTR
0135 E0                MOVX    A,@DPTR
0136 FF                MOV     R7,A
0137 900000      R     MOV     DPTR,#yerr+01H
013A E0                MOVX    A,@DPTR
013B 2F                ADD     A,R7
013C F0                MOVX    @DPTR,A
013D 900000      R     MOV     DPTR,#yerr
0140 E0                MOVX    A,@DPTR
0141 3E                ADDC    A,R6
0142 F0                MOVX    @DPTR,A
                                           ; SOURCE LINE # 60
0143 900000      R     MOV     DPTR,#distance
0146 E0                MOVX    A,@DPTR
0147 FE                MOV     R6,A
0148 A3                INC     DPTR
0149 E0                MOVX    A,@DPTR
014A FF                MOV     R7,A
014B 900000      R     MOV     DPTR,#xerr
014E E0                MOVX    A,@DPTR
014F FC                MOV     R4,A
0150 A3                INC     DPTR
0151 E0                MOVX    A,@DPTR
0152 FD                MOV     R5,A
0153 D3                SETB    C
0154 9F                SUBB    A,R7
0155 EE                MOV     A,R6
0156 6480              XRL     A,#080H
0158 F8                MOV     R0,A
0159 EC                MOV     A,R4
015A 6480              XRL     A,#080H
015C 98                SUBB    A,R0
015D 4020              JC      ?C0022
                                           ; SOURCE LINE # 61
                                           ; SOURCE LINE # 62
015F ED                MOV     A,R5
0160 9F                SUBB    A,R7
0161 FF                MOV     R7,A
0162 EC                MOV     A,R4
0163 9E                SUBB    A,R6
0164 900000      R     MOV     DPTR,#xerr
C51 COMPILER V9.57.0.0   GUI                                                               02/19/2022 23:37:22 PAGE 16  

0167 F0                MOVX    @DPTR,A
0168 A3                INC     DPTR
0169 EF                MOV     A,R7
016A F0                MOVX    @DPTR,A
                                           ; SOURCE LINE # 63
016B 900000      R     MOV     DPTR,#incx
016E E0                MOVX    A,@DPTR
016F FE                MOV     R6,A
0170 A3                INC     DPTR
0171 E0                MOVX    A,@DPTR
0172 FF                MOV     R7,A
0173 900000      R     MOV     DPTR,#uRow+01H
0176 E0                MOVX    A,@DPTR
0177 2F                ADD     A,R7
0178 F0                MOVX    @DPTR,A
0179 900000      R     MOV     DPTR,#uRow
017C E0                MOVX    A,@DPTR
017D 3E                ADDC    A,R6
017E F0                MOVX    @DPTR,A
                                           ; SOURCE LINE # 64
017F         ?C0022:
                                           ; SOURCE LINE # 65
017F 900000      R     MOV     DPTR,#distance
0182 E0                MOVX    A,@DPTR
0183 FE                MOV     R6,A
0184 A3                INC     DPTR
0185 E0                MOVX    A,@DPTR
0186 FF                MOV     R7,A
0187 900000      R     MOV     DPTR,#yerr
018A E0                MOVX    A,@DPTR
018B FC                MOV     R4,A
018C A3                INC     DPTR
018D E0                MOVX    A,@DPTR
018E FD                MOV     R5,A
018F D3                SETB    C
0190 9F                SUBB    A,R7
0191 EE                MOV     A,R6
0192 6480              XRL     A,#080H
0194 F8                MOV     R0,A
0195 EC                MOV     A,R4
0196 6480              XRL     A,#080H
0198 98                SUBB    A,R0
0199 4020              JC      ?C0021
                                           ; SOURCE LINE # 66
                                           ; SOURCE LINE # 67
019B ED                MOV     A,R5
019C 9F                SUBB    A,R7
019D FF                MOV     R7,A
019E EC                MOV     A,R4
019F 9E                SUBB    A,R6
01A0 900000      R     MOV     DPTR,#yerr
01A3 F0                MOVX    @DPTR,A
01A4 A3                INC     DPTR
01A5 EF                MOV     A,R7
01A6 F0                MOVX    @DPTR,A
                                           ; SOURCE LINE # 68
01A7 900000      R     MOV     DPTR,#incy
01AA E0                MOVX    A,@DPTR
01AB FE                MOV     R6,A
01AC A3                INC     DPTR
01AD E0                MOVX    A,@DPTR
01AE FF                MOV     R7,A
C51 COMPILER V9.57.0.0   GUI                                                               02/19/2022 23:37:22 PAGE 17  

01AF 900000      R     MOV     DPTR,#uCol+01H
01B2 E0                MOVX    A,@DPTR
01B3 2F                ADD     A,R7
01B4 F0                MOVX    @DPTR,A
01B5 900000      R     MOV     DPTR,#uCol
01B8 E0                MOVX    A,@DPTR
01B9 3E                ADDC    A,R6
01BA F0                MOVX    @DPTR,A
                                           ; SOURCE LINE # 69
                                           ; SOURCE LINE # 70
01BB         ?C0021:
01BB 900000      R     MOV     DPTR,#t+01H
01BE E0                MOVX    A,@DPTR
01BF 04                INC     A
01C0 F0                MOVX    @DPTR,A
01C1 7006              JNZ     ?C0150
01C3 900000      R     MOV     DPTR,#t
01C6 E0                MOVX    A,@DPTR
01C7 04                INC     A
01C8 F0                MOVX    @DPTR,A
01C9         ?C0150:
01C9 020000      R     LJMP    ?C0019
                                           ; SOURCE LINE # 71
01CC         ?C0024:
01CC 22                RET     
             ; FUNCTION _GUI_DrawLine (END)

             ; FUNCTION _GUI_DrawRectangle (BEGIN)
                                           ; SOURCE LINE # 73
0000 8E00        R     MOV     x1,R6
0002 8F00        R     MOV     x1+01H,R7
0004 8C00        R     MOV     y1,R4
0006 8D00        R     MOV     y1+01H,R5
0008 8A00        R     MOV     x2,R2
000A 8B00        R     MOV     x2+01H,R3
                                           ; SOURCE LINE # 74
                                           ; SOURCE LINE # 75
000C 850000      R     MOV     ?_GUI_DrawLine?BYTE+06H,y1
000F 850000      R     MOV     ?_GUI_DrawLine?BYTE+07H,y1+01H
0012 850000      R     MOV     ?_GUI_DrawLine?BYTE+08H,color
0015 850000      R     MOV     ?_GUI_DrawLine?BYTE+09H,color+01H
0018 120000      R     LCALL   _GUI_DrawLine
                                           ; SOURCE LINE # 76
001B 850000      R     MOV     ?_GUI_DrawLine?BYTE+06H,y2
001E 850000      R     MOV     ?_GUI_DrawLine?BYTE+07H,y2+01H
0021 850000      R     MOV     ?_GUI_DrawLine?BYTE+08H,color
0024 850000      R     MOV     ?_GUI_DrawLine?BYTE+09H,color+01H
0027 AB00        R     MOV     R3,x1+01H
0029 AA00        R     MOV     R2,x1
002B AD00        R     MOV     R5,y1+01H
002D AC00        R     MOV     R4,y1
002F AF00        R     MOV     R7,x1+01H
0031 AE00        R     MOV     R6,x1
0033 120000      R     LCALL   _GUI_DrawLine
                                           ; SOURCE LINE # 77
0036 850000      R     MOV     ?_GUI_DrawLine?BYTE+06H,y2
0039 850000      R     MOV     ?_GUI_DrawLine?BYTE+07H,y2+01H
003C 850000      R     MOV     ?_GUI_DrawLine?BYTE+08H,color
003F 850000      R     MOV     ?_GUI_DrawLine?BYTE+09H,color+01H
0042 AB00        R     MOV     R3,x2+01H
0044 AA00        R     MOV     R2,x2
0046 AD00        R     MOV     R5,y2+01H
C51 COMPILER V9.57.0.0   GUI                                                               02/19/2022 23:37:22 PAGE 18  

0048 AC00        R     MOV     R4,y2
004A AF00        R     MOV     R7,x1+01H
004C AE00        R     MOV     R6,x1
004E 120000      R     LCALL   _GUI_DrawLine
                                           ; SOURCE LINE # 78
0051 850000      R     MOV     ?_GUI_DrawLine?BYTE+06H,y2
0054 850000      R     MOV     ?_GUI_DrawLine?BYTE+07H,y2+01H
0057 850000      R     MOV     ?_GUI_DrawLine?BYTE+08H,color
005A 850000      R     MOV     ?_GUI_DrawLine?BYTE+09H,color+01H
005D AB00        R     MOV     R3,x2+01H
005F AA00        R     MOV     R2,x2
0061 AD00        R     MOV     R5,y1+01H
0063 AC00        R     MOV     R4,y1
0065 AF00        R     MOV     R7,x2+01H
0067 AE00        R     MOV     R6,x2
0069 020000      R     LJMP    _GUI_DrawLine
             ; FUNCTION _GUI_DrawRectangle (END)

             ; FUNCTION _GUI_DrawCircle (BEGIN)
                                           ; SOURCE LINE # 81
0000 8E00        R     MOV     x1,R6
0002 8F00        R     MOV     x1+01H,R7
0004 8C00        R     MOV     y1,R4
0006 8D00        R     MOV     y1+01H,R5
0008 8B00        R     MOV     r,R3
                                           ; SOURCE LINE # 82
                                           ; SOURCE LINE # 84
000A E4                CLR     A
000B 900000      R     MOV     DPTR,#a
000E F0                MOVX    @DPTR,A
000F A3                INC     DPTR
0010 F0                MOVX    @DPTR,A
                                           ; SOURCE LINE # 85
0011 A3                INC     DPTR
0012 F0                MOVX    @DPTR,A
0013 A3                INC     DPTR
0014 E500        R     MOV     A,r
0016 F0                MOVX    @DPTR,A
0017         ?C0026:
                                           ; SOURCE LINE # 86
0017 900000      R     MOV     DPTR,#b
001A E0                MOVX    A,@DPTR
001B FE                MOV     R6,A
001C A3                INC     DPTR
001D E0                MOVX    A,@DPTR
001E FF                MOV     R7,A
001F 900000      R     MOV     DPTR,#a
0022 E0                MOVX    A,@DPTR
0023 FC                MOV     R4,A
0024 A3                INC     DPTR
0025 E0                MOVX    A,@DPTR
0026 FD                MOV     R5,A
0027 D3                SETB    C
0028 9F                SUBB    A,R7
0029 EE                MOV     A,R6
002A 6480              XRL     A,#080H
002C F8                MOV     R0,A
002D EC                MOV     A,R4
002E 6480              XRL     A,#080H
0030 98                SUBB    A,R0
0031 4003              JC      $ + 5H
0033 020000      R     LJMP    ?C0029
C51 COMPILER V9.57.0.0   GUI                                                               02/19/2022 23:37:22 PAGE 19  

                                           ; SOURCE LINE # 87
                                           ; SOURCE LINE # 88
0036 C3                CLR     C
0037 E500        R     MOV     A,x1+01H
0039 9F                SUBB    A,R7
003A FF                MOV     R7,A
003B E500        R     MOV     A,x1
003D 9E                SUBB    A,R6
003E FE                MOV     R6,A
003F 120000      R     LCALL   L?0202
                                           ; SOURCE LINE # 89
0042 900000      R     MOV     DPTR,#b+01H
0045 E0                MOVX    A,@DPTR
0046 2500        R     ADD     A,x1+01H
0048 FF                MOV     R7,A
0049 900000      R     MOV     DPTR,#b
004C E0                MOVX    A,@DPTR
004D 900000      R     MOV     DPTR,#a
0050 120000      R     LCALL   L?0200
                                           ; SOURCE LINE # 90
0053 900000      R     MOV     DPTR,#a
0056 E0                MOVX    A,@DPTR
0057 FE                MOV     R6,A
0058 A3                INC     DPTR
0059 E0                MOVX    A,@DPTR
005A FF                MOV     R7,A
005B C3                CLR     C
005C E500        R     MOV     A,x1+01H
005E 9F                SUBB    A,R7
005F FF                MOV     R7,A
0060 E500        R     MOV     A,x1
0062 9E                SUBB    A,R6
0063 FE                MOV     R6,A
0064 900000      R     MOV     DPTR,#b+01H
0067 E0                MOVX    A,@DPTR
0068 2500        R     ADD     A,y1+01H
006A FD                MOV     R5,A
006B 900000      R     MOV     DPTR,#b
006E E0                MOVX    A,@DPTR
006F 3500        R     ADDC    A,y1
0071 120000      R     LCALL   L?0203
                                           ; SOURCE LINE # 91
0074 900000      R     MOV     DPTR,#a
0077 E0                MOVX    A,@DPTR
0078 FE                MOV     R6,A
0079 A3                INC     DPTR
007A E0                MOVX    A,@DPTR
007B FF                MOV     R7,A
007C C3                CLR     C
007D E500        R     MOV     A,x1+01H
007F 9F                SUBB    A,R7
0080 FF                MOV     R7,A
0081 E500        R     MOV     A,x1
0083 9E                SUBB    A,R6
0084 FE                MOV     R6,A
0085 A3                INC     DPTR
0086 120000      R     LCALL   L?0201
                                           ; SOURCE LINE # 92
0089 900000      R     MOV     DPTR,#b+01H
008C E0                MOVX    A,@DPTR
008D 2500        R     ADD     A,x1+01H
008F FF                MOV     R7,A
C51 COMPILER V9.57.0.0   GUI                                                               02/19/2022 23:37:22 PAGE 20  

0090 900000      R     MOV     DPTR,#b
0093 E0                MOVX    A,@DPTR
0094 3500        R     ADDC    A,x1
0096 FE                MOV     R6,A
0097 900000      R     MOV     DPTR,#a+01H
009A E0                MOVX    A,@DPTR
009B 2500        R     ADD     A,y1+01H
009D FD                MOV     R5,A
009E 900000      R     MOV     DPTR,#a
00A1 E0                MOVX    A,@DPTR
00A2 3500        R     ADDC    A,y1
00A4 120000      R     LCALL   L?0203
                                           ; SOURCE LINE # 93
00A7 900000      R     MOV     DPTR,#a+01H
00AA E0                MOVX    A,@DPTR
00AB 2500        R     ADD     A,x1+01H
00AD FF                MOV     R7,A
00AE 900000      R     MOV     DPTR,#a
00B1 E0                MOVX    A,@DPTR
00B2 900000      R     MOV     DPTR,#b
00B5 120000      R     LCALL   L?0200
                                           ; SOURCE LINE # 94
00B8 900000      R     MOV     DPTR,#a+01H
00BB E0                MOVX    A,@DPTR
00BC 2500        R     ADD     A,x1+01H
00BE FF                MOV     R7,A
00BF 900000      R     MOV     DPTR,#a
00C2 E0                MOVX    A,@DPTR
00C3 3500        R     ADDC    A,x1
00C5 FE                MOV     R6,A
00C6 900000      R     MOV     DPTR,#b+01H
00C9 E0                MOVX    A,@DPTR
00CA 2500        R     ADD     A,y1+01H
00CC FD                MOV     R5,A
00CD 900000      R     MOV     DPTR,#b
00D0 E0                MOVX    A,@DPTR
00D1 3500        R     ADDC    A,y1
00D3 120000      R     LCALL   L?0203
                                           ; SOURCE LINE # 95
00D6 900000      R     MOV     DPTR,#b
00D9 E0                MOVX    A,@DPTR
00DA FE                MOV     R6,A
00DB A3                INC     DPTR
00DC E0                MOVX    A,@DPTR
00DD FF                MOV     R7,A
00DE C3                CLR     C
00DF E500        R     MOV     A,x1+01H
00E1 9F                SUBB    A,R7
00E2 FF                MOV     R7,A
00E3 E500        R     MOV     A,x1
00E5 9E                SUBB    A,R6
00E6 FE                MOV     R6,A
00E7 900000      R     MOV     DPTR,#a+01H
00EA E0                MOVX    A,@DPTR
00EB 2500        R     ADD     A,y1+01H
00ED FD                MOV     R5,A
00EE 900000      R     MOV     DPTR,#a
00F1 E0                MOVX    A,@DPTR
00F2 3500        R     ADDC    A,y1
00F4 120000      R     LCALL   L?0203
                                           ; SOURCE LINE # 96
00F7 900000      R     MOV     DPTR,#a+01H
C51 COMPILER V9.57.0.0   GUI                                                               02/19/2022 23:37:22 PAGE 21  

00FA E0                MOVX    A,@DPTR
00FB 04                INC     A
00FC F0                MOVX    @DPTR,A
00FD 7006              JNZ     ?C0151
00FF 900000      R     MOV     DPTR,#a
0102 E0                MOVX    A,@DPTR
0103 04                INC     A
0104 F0                MOVX    @DPTR,A
0105         ?C0151:
                                           ; SOURCE LINE # 97
0105 900000      R     MOV     DPTR,#b
0108 E0                MOVX    A,@DPTR
0109 FC                MOV     R4,A
010A A3                INC     DPTR
010B E0                MOVX    A,@DPTR
010C FD                MOV     R5,A
010D FF                MOV     R7,A
010E AE04              MOV     R6,AR4
0110 120000      E     LCALL   ?C?IMUL
0113 AA06              MOV     R2,AR6
0115 AB07              MOV     R3,AR7
0117 900000      R     MOV     DPTR,#a
011A E0                MOVX    A,@DPTR
011B FC                MOV     R4,A
011C A3                INC     DPTR
011D E0                MOVX    A,@DPTR
011E FD                MOV     R5,A
011F FF                MOV     R7,A
0120 AE04              MOV     R6,AR4
0122 120000      E     LCALL   ?C?IMUL
0125 EF                MOV     A,R7
0126 2B                ADD     A,R3
0127 FD                MOV     R5,A
0128 EE                MOV     A,R6
0129 3A                ADDC    A,R2
012A FC                MOV     R4,A
012B E500        R     MOV     A,r
012D F5F0              MOV     B,A
012F A4                MUL     AB
0130 FF                MOV     R7,A
0131 D3                SETB    C
0132 ED                MOV     A,R5
0133 9F                SUBB    A,R7
0134 E5F0              MOV     A,B
0136 6480              XRL     A,#080H
0138 F8                MOV     R0,A
0139 EC                MOV     A,R4
013A 6480              XRL     A,#080H
013C 98                SUBB    A,R0
013D 5003              JNC     $ + 5H
013F 020000      R     LJMP    ?C0026
                                           ; SOURCE LINE # 98
                                           ; SOURCE LINE # 99
0142 900000      R     MOV     DPTR,#b+01H
0145 E0                MOVX    A,@DPTR
0146 24FF              ADD     A,#0FFH
0148 F0                MOVX    @DPTR,A
0149 900000      R     MOV     DPTR,#b
014C E0                MOVX    A,@DPTR
014D 34FF              ADDC    A,#0FFH
014F F0                MOVX    @DPTR,A
                                           ; SOURCE LINE # 100
C51 COMPILER V9.57.0.0   GUI                                                               02/19/2022 23:37:22 PAGE 22  

                                           ; SOURCE LINE # 101
0150 020000      R     LJMP    ?C0026
                                           ; SOURCE LINE # 102
0153         ?C0029:
0153 22                RET     
             ; FUNCTION _GUI_DrawCircle (END)

             ; FUNCTION _GUI_ShowChinese (BEGIN)
                                           ; SOURCE LINE # 114
0000 8E00        R     MOV     x,R6
0002 8F00        R     MOV     x+01H,R7
0004 8C00        R     MOV     y,R4
0006 8D00        R     MOV     y+01H,R5
0008 8B00        R     MOV     s,R3
000A 8A00        R     MOV     s+01H,R2
000C 8900        R     MOV     s+02H,R1
                                           ; SOURCE LINE # 115
000E         ?C0030:
                                           ; SOURCE LINE # 116
000E AB00        R     MOV     R3,s
0010 AA00        R     MOV     R2,s+01H
0012 A900        R     MOV     R1,s+02H
0014 120000      E     LCALL   ?C?CLDPTR
0017 7003              JNZ     $ + 5H
0019 020000      R     LJMP    ?C0040
                                           ; SOURCE LINE # 117
                                           ; SOURCE LINE # 118
001C E500        R     MOV     A,sizey
001E B40C1E            CJNE    A,#0CH,?C0032
                                           ; SOURCE LINE # 119
0021 850000      R     MOV     ?_GUI_ShowChinese12x12?BYTE+07H,fc
0024 850000      R     MOV     ?_GUI_ShowChinese12x12?BYTE+08H,fc+01H
0027 850000      R     MOV     ?_GUI_ShowChinese12x12?BYTE+09H,bc
002A 850000      R     MOV     ?_GUI_ShowChinese12x12?BYTE+0AH,bc+01H
002D F500        R     MOV     ?_GUI_ShowChinese12x12?BYTE+0BH,A
002F 850000      R     MOV     ?_GUI_ShowChinese12x12?BYTE+0CH,mode
0032 AD00        R     MOV     R5,y+01H
0034 AC00        R     MOV     R4,y
0036 AF00        R     MOV     R7,x+01H
0038 AE00        R     MOV     R6,x
003A 120000      R     LCALL   _GUI_ShowChinese12x12
003D 807B              SJMP    ?C0033
003F         ?C0032:
                                           ; SOURCE LINE # 120
003F E500        R     MOV     A,sizey
0041 B41024            CJNE    A,#010H,?C0034
                                           ; SOURCE LINE # 121
0044 AB00        R     MOV     R3,s
0046 AA00        R     MOV     R2,s+01H
0048 A900        R     MOV     R1,s+02H
004A 850000      R     MOV     ?_GUI_ShowChinese16x16?BYTE+07H,fc
004D 850000      R     MOV     ?_GUI_ShowChinese16x16?BYTE+08H,fc+01H
0050 850000      R     MOV     ?_GUI_ShowChinese16x16?BYTE+09H,bc
0053 850000      R     MOV     ?_GUI_ShowChinese16x16?BYTE+0AH,bc+01H
0056 F500        R     MOV     ?_GUI_ShowChinese16x16?BYTE+0BH,A
0058 850000      R     MOV     ?_GUI_ShowChinese16x16?BYTE+0CH,mode
005B AD00        R     MOV     R5,y+01H
005D AC00        R     MOV     R4,y
005F AF00        R     MOV     R7,x+01H
0061 AE00        R     MOV     R6,x
0063 120000      R     LCALL   _GUI_ShowChinese16x16
0066 8052              SJMP    ?C0033
C51 COMPILER V9.57.0.0   GUI                                                               02/19/2022 23:37:22 PAGE 23  

0068         ?C0034:
                                           ; SOURCE LINE # 122
0068 E500        R     MOV     A,sizey
006A B41824            CJNE    A,#018H,?C0036
                                           ; SOURCE LINE # 123
006D AB00        R     MOV     R3,s
006F AA00        R     MOV     R2,s+01H
0071 A900        R     MOV     R1,s+02H
0073 850000      R     MOV     ?_GUI_ShowChinese24x24?BYTE+07H,fc
0076 850000      R     MOV     ?_GUI_ShowChinese24x24?BYTE+08H,fc+01H
0079 850000      R     MOV     ?_GUI_ShowChinese24x24?BYTE+09H,bc
007C 850000      R     MOV     ?_GUI_ShowChinese24x24?BYTE+0AH,bc+01H
007F F500        R     MOV     ?_GUI_ShowChinese24x24?BYTE+0BH,A
0081 850000      R     MOV     ?_GUI_ShowChinese24x24?BYTE+0CH,mode
0084 AD00        R     MOV     R5,y+01H
0086 AC00        R     MOV     R4,y
0088 AF00        R     MOV     R7,x+01H
008A AE00        R     MOV     R6,x
008C 120000      R     LCALL   _GUI_ShowChinese24x24
008F 8029              SJMP    ?C0033
0091         ?C0036:
                                           ; SOURCE LINE # 124
0091 E500        R     MOV     A,sizey
0093 6420              XRL     A,#020H
0095 703C              JNZ     ?C0040
                                           ; SOURCE LINE # 125
0097 AB00        R     MOV     R3,s
0099 AA00        R     MOV     R2,s+01H
009B A900        R     MOV     R1,s+02H
009D 850000      R     MOV     ?_GUI_ShowChinese32x32?BYTE+07H,fc
00A0 850000      R     MOV     ?_GUI_ShowChinese32x32?BYTE+08H,fc+01H
00A3 850000      R     MOV     ?_GUI_ShowChinese32x32?BYTE+09H,bc
00A6 850000      R     MOV     ?_GUI_ShowChinese32x32?BYTE+0AH,bc+01H
00A9 850000      R     MOV     ?_GUI_ShowChinese32x32?BYTE+0BH,sizey
00AC 850000      R     MOV     ?_GUI_ShowChinese32x32?BYTE+0CH,mode
00AF AD00        R     MOV     R5,y+01H
00B1 AC00        R     MOV     R4,y
00B3 AF00        R     MOV     R7,x+01H
00B5 AE00        R     MOV     R6,x
00B7 120000      R     LCALL   _GUI_ShowChinese32x32
00BA         ?C0033:
                                           ; SOURCE LINE # 128
00BA 7402              MOV     A,#02H
00BC 2500        R     ADD     A,s+02H
00BE F500        R     MOV     s+02H,A
00C0 E4                CLR     A
00C1 3500        R     ADDC    A,s+01H
00C3 F500        R     MOV     s+01H,A
                                           ; SOURCE LINE # 129
00C5 E500        R     MOV     A,sizey
00C7 2500        R     ADD     A,x+01H
00C9 F500        R     MOV     x+01H,A
00CB E4                CLR     A
00CC 3500        R     ADDC    A,x
00CE F500        R     MOV     x,A
                                           ; SOURCE LINE # 130
00D0 020000      R     LJMP    ?C0030
                                           ; SOURCE LINE # 131
00D3         ?C0040:
00D3 22                RET     
             ; FUNCTION _GUI_ShowChinese (END)

C51 COMPILER V9.57.0.0   GUI                                                               02/19/2022 23:37:22 PAGE 24  

             ; FUNCTION _GUI_ShowChinese12x12 (BEGIN)
                                           ; SOURCE LINE # 143
0000 8E00        R     MOV     x,R6
0002 8F00        R     MOV     x+01H,R7
0004 8C00        R     MOV     y,R4
0006 8D00        R     MOV     y+01H,R5
0008 8B00        R     MOV     s,R3
000A 8A00        R     MOV     s+01H,R2
000C 8900        R     MOV     s+02H,R1
                                           ; SOURCE LINE # 144
                                           ; SOURCE LINE # 145
000E E4                CLR     A
000F 900000      R     MOV     DPTR,#m
0012 F0                MOVX    @DPTR,A
                                           ; SOURCE LINE # 149
0013 900000      R     MOV     DPTR,#x0
0016 E500        R     MOV     A,x
0018 F0                MOVX    @DPTR,A
0019 A3                INC     DPTR
001A E500        R     MOV     A,x+01H
001C F0                MOVX    @DPTR,A
                                           ; SOURCE LINE # 150
001D E500        R     MOV     A,sizey
001F 13                RRC     A
0020 13                RRC     A
0021 13                RRC     A
0022 541F              ANL     A,#01FH
0024 FF                MOV     R7,A
0025 7E00              MOV     R6,#00H
0027 E500        R     MOV     A,sizey
0029 5407              ANL     A,#07H
002B 7C00              MOV     R4,#00H
002D 6004              JZ      ?C0041
002F 7D01              MOV     R5,#01H
0031 8002              SJMP    ?C0042
0033         ?C0041:
0033 7D00              MOV     R5,#00H
0035         ?C0042:
0035 ED                MOV     A,R5
0036 2F                ADD     A,R7
0037 FF                MOV     R7,A
0038 EC                MOV     A,R4
0039 3E                ADDC    A,R6
003A FE                MOV     R6,A
003B AD00        R     MOV     R5,sizey
003D 7C00              MOV     R4,#00H
003F 120000      E     LCALL   ?C?IMUL
0042 900000      R     MOV     DPTR,#TypefaceNum
0045 EE                MOV     A,R6
0046 F0                MOVX    @DPTR,A
0047 A3                INC     DPTR
0048 EF                MOV     A,R7
0049 F0                MOVX    @DPTR,A
                                           ; SOURCE LINE # 152
004A 900000      R     MOV     DPTR,#HZnum
004D E4                CLR     A
004E F0                MOVX    @DPTR,A
004F A3                INC     DPTR
0050 7405              MOV     A,#05H
0052 F0                MOVX    @DPTR,A
                                           ; SOURCE LINE # 153
0053 E4                CLR     A
C51 COMPILER V9.57.0.0   GUI                                                               02/19/2022 23:37:22 PAGE 25  

0054 900000      R     MOV     DPTR,#k
0057 F0                MOVX    @DPTR,A
0058 A3                INC     DPTR
0059 F0                MOVX    @DPTR,A
005A         ?C0043:
005A 900000      R     MOV     DPTR,#HZnum
005D E0                MOVX    A,@DPTR
005E FE                MOV     R6,A
005F A3                INC     DPTR
0060 E0                MOVX    A,@DPTR
0061 FF                MOV     R7,A
0062 900000      R     MOV     DPTR,#k
0065 E0                MOVX    A,@DPTR
0066 FC                MOV     R4,A
0067 A3                INC     DPTR
0068 E0                MOVX    A,@DPTR
0069 FD                MOV     R5,A
006A C3                CLR     C
006B 9F                SUBB    A,R7
006C EC                MOV     A,R4
006D 9E                SUBB    A,R6
006E 4003              JC      $ + 5H
0070 020000      R     LJMP    ?C0060
                                           ; SOURCE LINE # 154
                                           ; SOURCE LINE # 155
0073 AB00        R     MOV     R3,s
0075 AA00        R     MOV     R2,s+01H
0077 A900        R     MOV     R1,s+02H
0079 120000      E     LCALL   ?C?CLDPTR
007C FF                MOV     R7,A
007D 900000      R     MOV     DPTR,#tfont12
0080 75F01A            MOV     B,#01AH
0083 ED                MOV     A,R5
0084 120000      E     LCALL   ?C?OFFXADD
0087 EC                MOV     A,R4
0088 75F01A            MOV     B,#01AH
008B A4                MUL     AB
008C 2583              ADD     A,DPH
008E F583              MOV     DPH,A
0090 E4                CLR     A
0091 93                MOVC    A,@A+DPTR
0092 6F                XRL     A,R7
0093 6003              JZ      $ + 5H
0095 020000      R     LJMP    ?C0045
0098 900001            MOV     DPTR,#01H
009B 120000      E     LCALL   ?C?CLDOPTR
009E FF                MOV     R7,A
009F 900000      R     MOV     DPTR,#k
00A2 A3                INC     DPTR
00A3 E0                MOVX    A,@DPTR
00A4 900000      R     MOV     DPTR,#tfont12+01H
00A7 75F01A            MOV     B,#01AH
00AA 120000      E     LCALL   ?C?OFFXADD
00AD EC                MOV     A,R4
00AE 75F01A            MOV     B,#01AH
00B1 A4                MUL     AB
00B2 2583              ADD     A,DPH
00B4 F583              MOV     DPH,A
00B6 E4                CLR     A
00B7 93                MOVC    A,@A+DPTR
00B8 6F                XRL     A,R7
00B9 6003              JZ      $ + 5H
C51 COMPILER V9.57.0.0   GUI                                                               02/19/2022 23:37:22 PAGE 26  

00BB 020000      R     LJMP    ?C0045
                                           ; SOURCE LINE # 156
                                           ; SOURCE LINE # 157
00BE AF00        R     MOV     R7,sizey
00C0 FE                MOV     R6,A
00C1 E500        R     MOV     A,x+01H
00C3 2F                ADD     A,R7
00C4 CD                XCH     A,R5
00C5 EE                MOV     A,R6
00C6 3500        R     ADDC    A,x
00C8 CD                XCH     A,R5
00C9 24FF              ADD     A,#0FFH
00CB FB                MOV     R3,A
00CC ED                MOV     A,R5
00CD 34FF              ADDC    A,#0FFH
00CF FA                MOV     R2,A
00D0 E500        R     MOV     A,y+01H
00D2 2F                ADD     A,R7
00D3 CF                XCH     A,R7
00D4 EE                MOV     A,R6
00D5 3500        R     ADDC    A,y
00D7 CF                XCH     A,R7
00D8 24FF              ADD     A,#0FFH
00DA F500        E     MOV     ?_LCD_Addr_Set?BYTE+07H,A
00DC EF                MOV     A,R7
00DD 34FF              ADDC    A,#0FFH
00DF F500        E     MOV     ?_LCD_Addr_Set?BYTE+06H,A
00E1 AD00        R     MOV     R5,y+01H
00E3 AC00        R     MOV     R4,y
00E5 AF00        R     MOV     R7,x+01H
00E7 AE00        R     MOV     R6,x
00E9 120000      E     LCALL   _LCD_Addr_Set
                                           ; SOURCE LINE # 158
00EC E4                CLR     A
00ED 900000      R     MOV     DPTR,#i
00F0 F0                MOVX    @DPTR,A
00F1         ?C0047:
00F1 900000      R     MOV     DPTR,#i
00F4 E0                MOVX    A,@DPTR
00F5 FF                MOV     R7,A
00F6 D3                SETB    C
00F7 900000      R     MOV     DPTR,#TypefaceNum+01H
00FA E0                MOVX    A,@DPTR
00FB 9F                SUBB    A,R7
00FC 900000      R     MOV     DPTR,#TypefaceNum
00FF E0                MOVX    A,@DPTR
0100 9400              SUBB    A,#00H
0102 5003              JNC     $ + 5H
0104 020000      R     LJMP    ?C0045
                                           ; SOURCE LINE # 159
                                           ; SOURCE LINE # 160
0107 E4                CLR     A
0108 900000      R     MOV     DPTR,#j
010B F0                MOVX    @DPTR,A
010C         ?C0050:
                                           ; SOURCE LINE # 161
                                           ; SOURCE LINE # 162
010C E500        R     MOV     A,mode
010E 706D              JNZ     ?C0053
                                           ; SOURCE LINE # 163
                                           ; SOURCE LINE # 164
0110 900000      R     MOV     DPTR,#k
C51 COMPILER V9.57.0.0   GUI                                                               02/19/2022 23:37:22 PAGE 27  

0113 A3                INC     DPTR
0114 E0                MOVX    A,@DPTR
0115 75F01A            MOV     B,#01AH
0118 A4                MUL     AB
0119 2400        R     ADD     A,#LOW tfont12+02H
011B F582              MOV     DPL,A
011D E4                CLR     A
011E 3400        R     ADDC    A,#HIGH tfont12+02H
0120 F583              MOV     DPH,A
0122 C083              PUSH    DPH
0124 C082              PUSH    DPL
0126 900000      R     MOV     DPTR,#i
0129 E0                MOVX    A,@DPTR
012A D082              POP     DPL
012C D083              POP     DPH
012E 2582              ADD     A,DPL
0130 F582              MOV     DPL,A
0132 E4                CLR     A
0133 3583              ADDC    A,DPH
0135 F583              MOV     DPH,A
0137 E4                CLR     A
0138 93                MOVC    A,@A+DPTR
0139 FD                MOV     R5,A
013A 7C00              MOV     R4,#00H
013C 900000      R     MOV     DPTR,#j
013F E0                MOVX    A,@DPTR
0140 FF                MOV     R7,A
0141 7401              MOV     A,#01H
0143 7E00              MOV     R6,#00H
0145 A807              MOV     R0,AR7
0147 08                INC     R0
0148 8005              SJMP    ?C0153
014A         ?C0152:
014A C3                CLR     C
014B 33                RLC     A
014C CE                XCH     A,R6
014D 33                RLC     A
014E CE                XCH     A,R6
014F         ?C0153:
014F D8F9              DJNZ    R0,?C0152
0151 FF                MOV     R7,A
0152 EE                MOV     A,R6
0153 5C                ANL     A,R4
0154 FE                MOV     R6,A
0155 EF                MOV     A,R7
0156 5D                ANL     A,R5
0157 4E                ORL     A,R6
0158 6006              JZ      ?C0054
                                           ; SOURCE LINE # 165
015A AF00        R     MOV     R7,fc+01H
015C AE00        R     MOV     R6,fc
015E 8004              SJMP    ?C0192
0160         ?C0054:
                                           ; SOURCE LINE # 167
0160 AF00        R     MOV     R7,bc+01H
0162 AE00        R     MOV     R6,bc
0164         ?C0192:
0164 120000      E     LCALL   _LCD_Write_Word
0167         ?C0055:
                                           ; SOURCE LINE # 168
0167 900000      R     MOV     DPTR,#m
016A E0                MOVX    A,@DPTR
C51 COMPILER V9.57.0.0   GUI                                                               02/19/2022 23:37:22 PAGE 28  

016B 04                INC     A
016C F0                MOVX    @DPTR,A
                                           ; SOURCE LINE # 169
016D E0                MOVX    A,@DPTR
016E 8500F0      R     MOV     B,sizey
0171 84                DIV     AB
0172 E5F0              MOV     A,B
0174 6003              JZ      $ + 5H
0176 020000      R     LJMP    ?C0052
                                           ; SOURCE LINE # 170
                                           ; SOURCE LINE # 171
0179 F0                MOVX    @DPTR,A
                                           ; SOURCE LINE # 172
017A 020000      R     LJMP    ?C0049
                                           ; SOURCE LINE # 173
                                           ; SOURCE LINE # 174
017D         ?C0053:
                                           ; SOURCE LINE # 176
                                           ; SOURCE LINE # 177
017D 900000      R     MOV     DPTR,#k
0180 A3                INC     DPTR
0181 E0                MOVX    A,@DPTR
0182 75F01A            MOV     B,#01AH
0185 A4                MUL     AB
0186 2400        R     ADD     A,#LOW tfont12+02H
0188 F582              MOV     DPL,A
018A E4                CLR     A
018B 3400        R     ADDC    A,#HIGH tfont12+02H
018D F583              MOV     DPH,A
018F C083              PUSH    DPH
0191 C082              PUSH    DPL
0193 900000      R     MOV     DPTR,#i
0196 E0                MOVX    A,@DPTR
0197 D082              POP     DPL
0199 D083              POP     DPH
019B 2582              ADD     A,DPL
019D F582              MOV     DPL,A
019F E4                CLR     A
01A0 3583              ADDC    A,DPH
01A2 F583              MOV     DPH,A
01A4 E4                CLR     A
01A5 93                MOVC    A,@A+DPTR
01A6 FD                MOV     R5,A
01A7 7C00              MOV     R4,#00H
01A9 900000      R     MOV     DPTR,#j
01AC E0                MOVX    A,@DPTR
01AD FF                MOV     R7,A
01AE 7401              MOV     A,#01H
01B0 7E00              MOV     R6,#00H
01B2 A807              MOV     R0,AR7
01B4 08                INC     R0
01B5 8005              SJMP    ?C0155
01B7         ?C0154:
01B7 C3                CLR     C
01B8 33                RLC     A
01B9 CE                XCH     A,R6
01BA 33                RLC     A
01BB CE                XCH     A,R6
01BC         ?C0155:
01BC D8F9              DJNZ    R0,?C0154
01BE FF                MOV     R7,A
01BF EE                MOV     A,R6
C51 COMPILER V9.57.0.0   GUI                                                               02/19/2022 23:37:22 PAGE 29  

01C0 5C                ANL     A,R4
01C1 FE                MOV     R6,A
01C2 EF                MOV     A,R7
01C3 5D                ANL     A,R5
01C4 4E                ORL     A,R6
01C5 600F              JZ      ?C0058
                                           ; SOURCE LINE # 178
01C7 AB00        R     MOV     R3,fc+01H
01C9 AA00        R     MOV     R2,fc
01CB AD00        R     MOV     R5,y+01H
01CD AC00        R     MOV     R4,y
01CF AF00        R     MOV     R7,x+01H
01D1 AE00        R     MOV     R6,x
01D3 120000      R     LCALL   _GUI_DrawPoint
01D6         ?C0058:
                                           ; SOURCE LINE # 179
01D6 0500        R     INC     x+01H
01D8 E500        R     MOV     A,x+01H
01DA 7002              JNZ     ?C0156
01DC 0500        R     INC     x
01DE         ?C0156:
                                           ; SOURCE LINE # 180
01DE 900000      R     MOV     DPTR,#x0
01E1 E0                MOVX    A,@DPTR
01E2 FE                MOV     R6,A
01E3 A3                INC     DPTR
01E4 E0                MOVX    A,@DPTR
01E5 FF                MOV     R7,A
01E6 C3                CLR     C
01E7 E500        R     MOV     A,x+01H
01E9 9F                SUBB    A,R7
01EA FD                MOV     R5,A
01EB E500        R     MOV     A,x
01ED 9E                SUBB    A,R6
01EE FC                MOV     R4,A
01EF 7A00              MOV     R2,#00H
01F1 ED                MOV     A,R5
01F2 B50012            CJNE    A,sizey,?C0052
01F5 EA                MOV     A,R2
01F6 B5040E            CJNE    A,AR4,?C0052
                                           ; SOURCE LINE # 181
                                           ; SOURCE LINE # 182
01F9 8E00        R     MOV     x,R6
01FB 8F00        R     MOV     x+01H,R7
                                           ; SOURCE LINE # 183
01FD 0500        R     INC     y+01H
01FF E500        R     MOV     A,y+01H
0201 7013              JNZ     ?C0049
0203 0500        R     INC     y
0205         ?C0158:
                                           ; SOURCE LINE # 184
0205 800F              SJMP    ?C0049
                                           ; SOURCE LINE # 185
                                           ; SOURCE LINE # 186
                                           ; SOURCE LINE # 187
0207         ?C0052:
0207 900000      R     MOV     DPTR,#j
020A E0                MOVX    A,@DPTR
020B 04                INC     A
020C F0                MOVX    @DPTR,A
020D E0                MOVX    A,@DPTR
020E C3                CLR     C
C51 COMPILER V9.57.0.0   GUI                                                               02/19/2022 23:37:22 PAGE 30  

020F 9408              SUBB    A,#08H
0211 5003              JNC     $ + 5H
0213 020000      R     LJMP    ?C0050
                                           ; SOURCE LINE # 188
0216         ?C0049:
0216 900000      R     MOV     DPTR,#i
0219 E0                MOVX    A,@DPTR
021A 04                INC     A
021B F0                MOVX    @DPTR,A
021C 020000      R     LJMP    ?C0047
                                           ; SOURCE LINE # 189
                                           ; SOURCE LINE # 190
                                           ; SOURCE LINE # 191
021F         ?C0045:
021F 900000      R     MOV     DPTR,#k+01H
0222 E0                MOVX    A,@DPTR
0223 04                INC     A
0224 F0                MOVX    @DPTR,A
0225 7006              JNZ     ?C0159
0227 900000      R     MOV     DPTR,#k
022A E0                MOVX    A,@DPTR
022B 04                INC     A
022C F0                MOVX    @DPTR,A
022D         ?C0159:
022D 020000      R     LJMP    ?C0043
                                           ; SOURCE LINE # 192
0230         ?C0060:
0230 22                RET     
             ; FUNCTION _GUI_ShowChinese12x12 (END)

             ; FUNCTION _GUI_ShowChinese16x16 (BEGIN)
                                           ; SOURCE LINE # 204
0000 8E00        R     MOV     x,R6
0002 8F00        R     MOV     x+01H,R7
0004 8C00        R     MOV     y,R4
0006 8D00        R     MOV     y+01H,R5
0008 8B00        R     MOV     s,R3
000A 8A00        R     MOV     s+01H,R2
000C 8900        R     MOV     s+02H,R1
                                           ; SOURCE LINE # 205
                                           ; SOURCE LINE # 206
000E E4                CLR     A
000F 900000      R     MOV     DPTR,#m
0012 F0                MOVX    @DPTR,A
                                           ; SOURCE LINE # 210
0013 900000      R     MOV     DPTR,#x0
0016 E500        R     MOV     A,x
0018 F0                MOVX    @DPTR,A
0019 A3                INC     DPTR
001A E500        R     MOV     A,x+01H
001C F0                MOVX    @DPTR,A
                                           ; SOURCE LINE # 211
001D E500        R     MOV     A,sizey
001F 13                RRC     A
0020 13                RRC     A
0021 13                RRC     A
0022 541F              ANL     A,#01FH
0024 FF                MOV     R7,A
0025 7E00              MOV     R6,#00H
0027 E500        R     MOV     A,sizey
0029 5407              ANL     A,#07H
002B 7C00              MOV     R4,#00H
C51 COMPILER V9.57.0.0   GUI                                                               02/19/2022 23:37:22 PAGE 31  

002D 6004              JZ      ?C0061
002F 7D01              MOV     R5,#01H
0031 8002              SJMP    ?C0062
0033         ?C0061:
0033 7D00              MOV     R5,#00H
0035         ?C0062:
0035 ED                MOV     A,R5
0036 2F                ADD     A,R7
0037 FF                MOV     R7,A
0038 EC                MOV     A,R4
0039 3E                ADDC    A,R6
003A FE                MOV     R6,A
003B AD00        R     MOV     R5,sizey
003D 7C00              MOV     R4,#00H
003F 120000      E     LCALL   ?C?IMUL
0042 900000      R     MOV     DPTR,#TypefaceNum
0045 EE                MOV     A,R6
0046 F0                MOVX    @DPTR,A
0047 A3                INC     DPTR
0048 EF                MOV     A,R7
0049 F0                MOVX    @DPTR,A
                                           ; SOURCE LINE # 212
004A 900000      R     MOV     DPTR,#HZnum
004D E4                CLR     A
004E F0                MOVX    @DPTR,A
004F A3                INC     DPTR
0050 7405              MOV     A,#05H
0052 F0                MOVX    @DPTR,A
                                           ; SOURCE LINE # 213
0053 E4                CLR     A
0054 900000      R     MOV     DPTR,#k
0057 F0                MOVX    @DPTR,A
0058 A3                INC     DPTR
0059 F0                MOVX    @DPTR,A
005A         ?C0063:
005A 900000      R     MOV     DPTR,#HZnum
005D E0                MOVX    A,@DPTR
005E FE                MOV     R6,A
005F A3                INC     DPTR
0060 E0                MOVX    A,@DPTR
0061 FF                MOV     R7,A
0062 900000      R     MOV     DPTR,#k
0065 E0                MOVX    A,@DPTR
0066 FC                MOV     R4,A
0067 A3                INC     DPTR
0068 E0                MOVX    A,@DPTR
0069 FD                MOV     R5,A
006A C3                CLR     C
006B 9F                SUBB    A,R7
006C EC                MOV     A,R4
006D 9E                SUBB    A,R6
006E 4003              JC      $ + 5H
0070 020000      R     LJMP    ?C0080
                                           ; SOURCE LINE # 214
                                           ; SOURCE LINE # 215
0073 AB00        R     MOV     R3,s
0075 AA00        R     MOV     R2,s+01H
0077 A900        R     MOV     R1,s+02H
0079 120000      E     LCALL   ?C?CLDPTR
007C FF                MOV     R7,A
007D 900000      R     MOV     DPTR,#tfont16
0080 75F022            MOV     B,#022H
C51 COMPILER V9.57.0.0   GUI                                                               02/19/2022 23:37:22 PAGE 32  

0083 ED                MOV     A,R5
0084 120000      E     LCALL   ?C?OFFXADD
0087 EC                MOV     A,R4
0088 75F022            MOV     B,#022H
008B A4                MUL     AB
008C 2583              ADD     A,DPH
008E F583              MOV     DPH,A
0090 E4                CLR     A
0091 93                MOVC    A,@A+DPTR
0092 6F                XRL     A,R7
0093 6003              JZ      $ + 5H
0095 020000      R     LJMP    ?C0065
0098 900001            MOV     DPTR,#01H
009B 120000      E     LCALL   ?C?CLDOPTR
009E FF                MOV     R7,A
009F 900000      R     MOV     DPTR,#k
00A2 A3                INC     DPTR
00A3 E0                MOVX    A,@DPTR
00A4 900000      R     MOV     DPTR,#tfont16+01H
00A7 75F022            MOV     B,#022H
00AA 120000      E     LCALL   ?C?OFFXADD
00AD EC                MOV     A,R4
00AE 75F022            MOV     B,#022H
00B1 A4                MUL     AB
00B2 2583              ADD     A,DPH
00B4 F583              MOV     DPH,A
00B6 E4                CLR     A
00B7 93                MOVC    A,@A+DPTR
00B8 6F                XRL     A,R7
00B9 6003              JZ      $ + 5H
00BB 020000      R     LJMP    ?C0065
                                           ; SOURCE LINE # 216
                                           ; SOURCE LINE # 217
00BE AF00        R     MOV     R7,sizey
00C0 FE                MOV     R6,A
00C1 E500        R     MOV     A,x+01H
00C3 2F                ADD     A,R7
00C4 CD                XCH     A,R5
00C5 EE                MOV     A,R6
00C6 3500        R     ADDC    A,x
00C8 CD                XCH     A,R5
00C9 24FF              ADD     A,#0FFH
00CB FB                MOV     R3,A
00CC ED                MOV     A,R5
00CD 34FF              ADDC    A,#0FFH
00CF FA                MOV     R2,A
00D0 E500        R     MOV     A,y+01H
00D2 2F                ADD     A,R7
00D3 CF                XCH     A,R7
00D4 EE                MOV     A,R6
00D5 3500        R     ADDC    A,y
00D7 CF                XCH     A,R7
00D8 24FF              ADD     A,#0FFH
00DA F500        E     MOV     ?_LCD_Addr_Set?BYTE+07H,A
00DC EF                MOV     A,R7
00DD 34FF              ADDC    A,#0FFH
00DF F500        E     MOV     ?_LCD_Addr_Set?BYTE+06H,A
00E1 AD00        R     MOV     R5,y+01H
00E3 AC00        R     MOV     R4,y
00E5 AF00        R     MOV     R7,x+01H
00E7 AE00        R     MOV     R6,x
00E9 120000      E     LCALL   _LCD_Addr_Set
C51 COMPILER V9.57.0.0   GUI                                                               02/19/2022 23:37:22 PAGE 33  

                                           ; SOURCE LINE # 218
00EC E4                CLR     A
00ED 900000      R     MOV     DPTR,#i
00F0 F0                MOVX    @DPTR,A
00F1         ?C0067:
00F1 900000      R     MOV     DPTR,#i
00F4 E0                MOVX    A,@DPTR
00F5 FF                MOV     R7,A
00F6 D3                SETB    C
00F7 900000      R     MOV     DPTR,#TypefaceNum+01H
00FA E0                MOVX    A,@DPTR
00FB 9F                SUBB    A,R7
00FC 900000      R     MOV     DPTR,#TypefaceNum
00FF E0                MOVX    A,@DPTR
0100 9400              SUBB    A,#00H
0102 5003              JNC     $ + 5H
0104 020000      R     LJMP    ?C0065
                                           ; SOURCE LINE # 219
                                           ; SOURCE LINE # 220
0107 E4                CLR     A
0108 900000      R     MOV     DPTR,#j
010B F0                MOVX    @DPTR,A
010C         ?C0070:
                                           ; SOURCE LINE # 221
                                           ; SOURCE LINE # 222
010C E500        R     MOV     A,mode
010E 706D              JNZ     ?C0073
                                           ; SOURCE LINE # 223
                                           ; SOURCE LINE # 224
0110 900000      R     MOV     DPTR,#k
0113 A3                INC     DPTR
0114 E0                MOVX    A,@DPTR
0115 75F022            MOV     B,#022H
0118 A4                MUL     AB
0119 2400        R     ADD     A,#LOW tfont16+02H
011B F582              MOV     DPL,A
011D E4                CLR     A
011E 3400        R     ADDC    A,#HIGH tfont16+02H
0120 F583              MOV     DPH,A
0122 C083              PUSH    DPH
0124 C082              PUSH    DPL
0126 900000      R     MOV     DPTR,#i
0129 E0                MOVX    A,@DPTR
012A D082              POP     DPL
012C D083              POP     DPH
012E 2582              ADD     A,DPL
0130 F582              MOV     DPL,A
0132 E4                CLR     A
0133 3583              ADDC    A,DPH
0135 F583              MOV     DPH,A
0137 E4                CLR     A
0138 93                MOVC    A,@A+DPTR
0139 FD                MOV     R5,A
013A 7C00              MOV     R4,#00H
013C 900000      R     MOV     DPTR,#j
013F E0                MOVX    A,@DPTR
0140 FF                MOV     R7,A
0141 7401              MOV     A,#01H
0143 7E00              MOV     R6,#00H
0145 A807              MOV     R0,AR7
0147 08                INC     R0
0148 8005              SJMP    ?C0161
C51 COMPILER V9.57.0.0   GUI                                                               02/19/2022 23:37:22 PAGE 34  

014A         ?C0160:
014A C3                CLR     C
014B 33                RLC     A
014C CE                XCH     A,R6
014D 33                RLC     A
014E CE                XCH     A,R6
014F         ?C0161:
014F D8F9              DJNZ    R0,?C0160
0151 FF                MOV     R7,A
0152 EE                MOV     A,R6
0153 5C                ANL     A,R4
0154 FE                MOV     R6,A
0155 EF                MOV     A,R7
0156 5D                ANL     A,R5
0157 4E                ORL     A,R6
0158 6006              JZ      ?C0074
                                           ; SOURCE LINE # 225
015A AF00        R     MOV     R7,fc+01H
015C AE00        R     MOV     R6,fc
015E 8004              SJMP    ?C0193
0160         ?C0074:
                                           ; SOURCE LINE # 227
0160 AF00        R     MOV     R7,bc+01H
0162 AE00        R     MOV     R6,bc
0164         ?C0193:
0164 120000      E     LCALL   _LCD_Write_Word
0167         ?C0075:
                                           ; SOURCE LINE # 228
0167 900000      R     MOV     DPTR,#m
016A E0                MOVX    A,@DPTR
016B 04                INC     A
016C F0                MOVX    @DPTR,A
                                           ; SOURCE LINE # 229
016D E0                MOVX    A,@DPTR
016E 8500F0      R     MOV     B,sizey
0171 84                DIV     AB
0172 E5F0              MOV     A,B
0174 6003              JZ      $ + 5H
0176 020000      R     LJMP    ?C0072
                                           ; SOURCE LINE # 230
                                           ; SOURCE LINE # 231
0179 F0                MOVX    @DPTR,A
                                           ; SOURCE LINE # 232
017A 020000      R     LJMP    ?C0069
                                           ; SOURCE LINE # 233
                                           ; SOURCE LINE # 234
017D         ?C0073:
                                           ; SOURCE LINE # 236
                                           ; SOURCE LINE # 237
017D 900000      R     MOV     DPTR,#k
0180 A3                INC     DPTR
0181 E0                MOVX    A,@DPTR
0182 75F022            MOV     B,#022H
0185 A4                MUL     AB
0186 2400        R     ADD     A,#LOW tfont16+02H
0188 F582              MOV     DPL,A
018A E4                CLR     A
018B 3400        R     ADDC    A,#HIGH tfont16+02H
018D F583              MOV     DPH,A
018F C083              PUSH    DPH
0191 C082              PUSH    DPL
0193 900000      R     MOV     DPTR,#i
C51 COMPILER V9.57.0.0   GUI                                                               02/19/2022 23:37:22 PAGE 35  

0196 E0                MOVX    A,@DPTR
0197 D082              POP     DPL
0199 D083              POP     DPH
019B 2582              ADD     A,DPL
019D F582              MOV     DPL,A
019F E4                CLR     A
01A0 3583              ADDC    A,DPH
01A2 F583              MOV     DPH,A
01A4 E4                CLR     A
01A5 93                MOVC    A,@A+DPTR
01A6 FD                MOV     R5,A
01A7 7C00              MOV     R4,#00H
01A9 900000      R     MOV     DPTR,#j
01AC E0                MOVX    A,@DPTR
01AD FF                MOV     R7,A
01AE 7401              MOV     A,#01H
01B0 7E00              MOV     R6,#00H
01B2 A807              MOV     R0,AR7
01B4 08                INC     R0
01B5 8005              SJMP    ?C0163
01B7         ?C0162:
01B7 C3                CLR     C
01B8 33                RLC     A
01B9 CE                XCH     A,R6
01BA 33                RLC     A
01BB CE                XCH     A,R6
01BC         ?C0163:
01BC D8F9              DJNZ    R0,?C0162
01BE FF                MOV     R7,A
01BF EE                MOV     A,R6
01C0 5C                ANL     A,R4
01C1 FE                MOV     R6,A
01C2 EF                MOV     A,R7
01C3 5D                ANL     A,R5
01C4 4E                ORL     A,R6
01C5 600F              JZ      ?C0078
                                           ; SOURCE LINE # 238
01C7 AB00        R     MOV     R3,fc+01H
01C9 AA00        R     MOV     R2,fc
01CB AD00        R     MOV     R5,y+01H
01CD AC00        R     MOV     R4,y
01CF AF00        R     MOV     R7,x+01H
01D1 AE00        R     MOV     R6,x
01D3 120000      R     LCALL   _GUI_DrawPoint
01D6         ?C0078:
                                           ; SOURCE LINE # 239
01D6 0500        R     INC     x+01H
01D8 E500        R     MOV     A,x+01H
01DA 7002              JNZ     ?C0164
01DC 0500        R     INC     x
01DE         ?C0164:
                                           ; SOURCE LINE # 240
01DE 900000      R     MOV     DPTR,#x0
01E1 E0                MOVX    A,@DPTR
01E2 FE                MOV     R6,A
01E3 A3                INC     DPTR
01E4 E0                MOVX    A,@DPTR
01E5 FF                MOV     R7,A
01E6 C3                CLR     C
01E7 E500        R     MOV     A,x+01H
01E9 9F                SUBB    A,R7
01EA FD                MOV     R5,A
C51 COMPILER V9.57.0.0   GUI                                                               02/19/2022 23:37:22 PAGE 36  

01EB E500        R     MOV     A,x
01ED 9E                SUBB    A,R6
01EE FC                MOV     R4,A
01EF 7A00              MOV     R2,#00H
01F1 ED                MOV     A,R5
01F2 B50012            CJNE    A,sizey,?C0072
01F5 EA                MOV     A,R2
01F6 B5040E            CJNE    A,AR4,?C0072
                                           ; SOURCE LINE # 241
                                           ; SOURCE LINE # 242
01F9 8E00        R     MOV     x,R6
01FB 8F00        R     MOV     x+01H,R7
                                           ; SOURCE LINE # 243
01FD 0500        R     INC     y+01H
01FF E500        R     MOV     A,y+01H
0201 7013              JNZ     ?C0069
0203 0500        R     INC     y
0205         ?C0166:
                                           ; SOURCE LINE # 244
0205 800F              SJMP    ?C0069
                                           ; SOURCE LINE # 245
                                           ; SOURCE LINE # 246
                                           ; SOURCE LINE # 247
0207         ?C0072:
0207 900000      R     MOV     DPTR,#j
020A E0                MOVX    A,@DPTR
020B 04                INC     A
020C F0                MOVX    @DPTR,A
020D E0                MOVX    A,@DPTR
020E C3                CLR     C
020F 9408              SUBB    A,#08H
0211 5003              JNC     $ + 5H
0213 020000      R     LJMP    ?C0070
                                           ; SOURCE LINE # 248
0216         ?C0069:
0216 900000      R     MOV     DPTR,#i
0219 E0                MOVX    A,@DPTR
021A 04                INC     A
021B F0                MOVX    @DPTR,A
021C 020000      R     LJMP    ?C0067
                                           ; SOURCE LINE # 249
                                           ; SOURCE LINE # 250
                                           ; SOURCE LINE # 251
021F         ?C0065:
021F 900000      R     MOV     DPTR,#k+01H
0222 E0                MOVX    A,@DPTR
0223 04                INC     A
0224 F0                MOVX    @DPTR,A
0225 7006              JNZ     ?C0167
0227 900000      R     MOV     DPTR,#k
022A E0                MOVX    A,@DPTR
022B 04                INC     A
022C F0                MOVX    @DPTR,A
022D         ?C0167:
022D 020000      R     LJMP    ?C0063
                                           ; SOURCE LINE # 252
0230         ?C0080:
0230 22                RET     
             ; FUNCTION _GUI_ShowChinese16x16 (END)

             ; FUNCTION _GUI_ShowChinese24x24 (BEGIN)
                                           ; SOURCE LINE # 264
C51 COMPILER V9.57.0.0   GUI                                                               02/19/2022 23:37:22 PAGE 37  

0000 8E00        R     MOV     x,R6
0002 8F00        R     MOV     x+01H,R7
0004 8C00        R     MOV     y,R4
0006 8D00        R     MOV     y+01H,R5
0008 8B00        R     MOV     s,R3
000A 8A00        R     MOV     s+01H,R2
000C 8900        R     MOV     s+02H,R1
                                           ; SOURCE LINE # 265
                                           ; SOURCE LINE # 266
000E E4                CLR     A
000F 900000      R     MOV     DPTR,#m
0012 F0                MOVX    @DPTR,A
                                           ; SOURCE LINE # 270
0013 900000      R     MOV     DPTR,#x0
0016 E500        R     MOV     A,x
0018 F0                MOVX    @DPTR,A
0019 A3                INC     DPTR
001A E500        R     MOV     A,x+01H
001C F0                MOVX    @DPTR,A
                                           ; SOURCE LINE # 271
001D E500        R     MOV     A,sizey
001F 13                RRC     A
0020 13                RRC     A
0021 13                RRC     A
0022 541F              ANL     A,#01FH
0024 FF                MOV     R7,A
0025 7E00              MOV     R6,#00H
0027 E500        R     MOV     A,sizey
0029 5407              ANL     A,#07H
002B 7C00              MOV     R4,#00H
002D 6004              JZ      ?C0081
002F 7D01              MOV     R5,#01H
0031 8002              SJMP    ?C0082
0033         ?C0081:
0033 7D00              MOV     R5,#00H
0035         ?C0082:
0035 ED                MOV     A,R5
0036 2F                ADD     A,R7
0037 FF                MOV     R7,A
0038 EC                MOV     A,R4
0039 3E                ADDC    A,R6
003A FE                MOV     R6,A
003B AD00        R     MOV     R5,sizey
003D 7C00              MOV     R4,#00H
003F 120000      E     LCALL   ?C?IMUL
0042 900000      R     MOV     DPTR,#TypefaceNum
0045 EE                MOV     A,R6
0046 F0                MOVX    @DPTR,A
0047 A3                INC     DPTR
0048 EF                MOV     A,R7
0049 F0                MOVX    @DPTR,A
                                           ; SOURCE LINE # 272
004A 900000      R     MOV     DPTR,#HZnum
004D E4                CLR     A
004E F0                MOVX    @DPTR,A
004F A3                INC     DPTR
0050 7405              MOV     A,#05H
0052 F0                MOVX    @DPTR,A
                                           ; SOURCE LINE # 273
0053 E4                CLR     A
0054 900000      R     MOV     DPTR,#k
0057 F0                MOVX    @DPTR,A
C51 COMPILER V9.57.0.0   GUI                                                               02/19/2022 23:37:22 PAGE 38  

0058 A3                INC     DPTR
0059 F0                MOVX    @DPTR,A
005A         ?C0083:
005A 900000      R     MOV     DPTR,#HZnum
005D E0                MOVX    A,@DPTR
005E FE                MOV     R6,A
005F A3                INC     DPTR
0060 E0                MOVX    A,@DPTR
0061 FF                MOV     R7,A
0062 900000      R     MOV     DPTR,#k
0065 E0                MOVX    A,@DPTR
0066 FC                MOV     R4,A
0067 A3                INC     DPTR
0068 E0                MOVX    A,@DPTR
0069 FD                MOV     R5,A
006A C3                CLR     C
006B 9F                SUBB    A,R7
006C EC                MOV     A,R4
006D 9E                SUBB    A,R6
006E 4003              JC      $ + 5H
0070 020000      R     LJMP    ?C0100
                                           ; SOURCE LINE # 274
                                           ; SOURCE LINE # 275
0073 AB00        R     MOV     R3,s
0075 AA00        R     MOV     R2,s+01H
0077 A900        R     MOV     R1,s+02H
0079 120000      E     LCALL   ?C?CLDPTR
007C FF                MOV     R7,A
007D 900000      R     MOV     DPTR,#tfont24
0080 75F04A            MOV     B,#04AH
0083 ED                MOV     A,R5
0084 120000      E     LCALL   ?C?OFFXADD
0087 EC                MOV     A,R4
0088 75F04A            MOV     B,#04AH
008B A4                MUL     AB
008C 2583              ADD     A,DPH
008E F583              MOV     DPH,A
0090 E4                CLR     A
0091 93                MOVC    A,@A+DPTR
0092 6F                XRL     A,R7
0093 6003              JZ      $ + 5H
0095 020000      R     LJMP    ?C0085
0098 900001            MOV     DPTR,#01H
009B 120000      E     LCALL   ?C?CLDOPTR
009E FF                MOV     R7,A
009F 900000      R     MOV     DPTR,#k
00A2 A3                INC     DPTR
00A3 E0                MOVX    A,@DPTR
00A4 900000      R     MOV     DPTR,#tfont24+01H
00A7 75F04A            MOV     B,#04AH
00AA 120000      E     LCALL   ?C?OFFXADD
00AD EC                MOV     A,R4
00AE 75F04A            MOV     B,#04AH
00B1 A4                MUL     AB
00B2 2583              ADD     A,DPH
00B4 F583              MOV     DPH,A
00B6 E4                CLR     A
00B7 93                MOVC    A,@A+DPTR
00B8 6F                XRL     A,R7
00B9 6003              JZ      $ + 5H
00BB 020000      R     LJMP    ?C0085
                                           ; SOURCE LINE # 276
C51 COMPILER V9.57.0.0   GUI                                                               02/19/2022 23:37:22 PAGE 39  

                                           ; SOURCE LINE # 277
00BE AF00        R     MOV     R7,sizey
00C0 FE                MOV     R6,A
00C1 E500        R     MOV     A,x+01H
00C3 2F                ADD     A,R7
00C4 CD                XCH     A,R5
00C5 EE                MOV     A,R6
00C6 3500        R     ADDC    A,x
00C8 CD                XCH     A,R5
00C9 24FF              ADD     A,#0FFH
00CB FB                MOV     R3,A
00CC ED                MOV     A,R5
00CD 34FF              ADDC    A,#0FFH
00CF FA                MOV     R2,A
00D0 E500        R     MOV     A,y+01H
00D2 2F                ADD     A,R7
00D3 CF                XCH     A,R7
00D4 EE                MOV     A,R6
00D5 3500        R     ADDC    A,y
00D7 CF                XCH     A,R7
00D8 24FF              ADD     A,#0FFH
00DA F500        E     MOV     ?_LCD_Addr_Set?BYTE+07H,A
00DC EF                MOV     A,R7
00DD 34FF              ADDC    A,#0FFH
00DF F500        E     MOV     ?_LCD_Addr_Set?BYTE+06H,A
00E1 AD00        R     MOV     R5,y+01H
00E3 AC00        R     MOV     R4,y
00E5 AF00        R     MOV     R7,x+01H
00E7 AE00        R     MOV     R6,x
00E9 120000      E     LCALL   _LCD_Addr_Set
                                           ; SOURCE LINE # 278
00EC E4                CLR     A
00ED 900000      R     MOV     DPTR,#i
00F0 F0                MOVX    @DPTR,A
00F1         ?C0087:
00F1 900000      R     MOV     DPTR,#i
00F4 E0                MOVX    A,@DPTR
00F5 FF                MOV     R7,A
00F6 D3                SETB    C
00F7 900000      R     MOV     DPTR,#TypefaceNum+01H
00FA E0                MOVX    A,@DPTR
00FB 9F                SUBB    A,R7
00FC 900000      R     MOV     DPTR,#TypefaceNum
00FF E0                MOVX    A,@DPTR
0100 9400              SUBB    A,#00H
0102 5003              JNC     $ + 5H
0104 020000      R     LJMP    ?C0085
                                           ; SOURCE LINE # 279
                                           ; SOURCE LINE # 280
0107 E4                CLR     A
0108 900000      R     MOV     DPTR,#j
010B F0                MOVX    @DPTR,A
010C         ?C0090:
010C 900000      R     MOV     DPTR,#j
010F E0                MOVX    A,@DPTR
0110 FF                MOV     R7,A
0111 C3                CLR     C
0112 9408              SUBB    A,#08H
0114 4003              JC      $ + 5H
0116 020000      R     LJMP    ?C0089
                                           ; SOURCE LINE # 281
                                           ; SOURCE LINE # 282
C51 COMPILER V9.57.0.0   GUI                                                               02/19/2022 23:37:22 PAGE 40  

0119 E500        R     MOV     A,mode
011B 7069              JNZ     ?C0093
                                           ; SOURCE LINE # 283
                                           ; SOURCE LINE # 284
011D 900000      R     MOV     DPTR,#i
0120 E0                MOVX    A,@DPTR
0121 FE                MOV     R6,A
0122 900000      R     MOV     DPTR,#k
0125 E0                MOVX    A,@DPTR
0126 FC                MOV     R4,A
0127 A3                INC     DPTR
0128 E0                MOVX    A,@DPTR
0129 900000      R     MOV     DPTR,#tfont24+02H
012C 75F04A            MOV     B,#04AH
012F 120000      E     LCALL   ?C?OFFXADD
0132 EC                MOV     A,R4
0133 75F04A            MOV     B,#04AH
0136 A4                MUL     AB
0137 2583              ADD     A,DPH
0139 F583              MOV     DPH,A
013B E582              MOV     A,DPL
013D 2E                ADD     A,R6
013E F582              MOV     DPL,A
0140 E4                CLR     A
0141 3583              ADDC    A,DPH
0143 F583              MOV     DPH,A
0145 E4                CLR     A
0146 93                MOVC    A,@A+DPTR
0147 FD                MOV     R5,A
0148 7C00              MOV     R4,#00H
014A 7401              MOV     A,#01H
014C 7E00              MOV     R6,#00H
014E A807              MOV     R0,AR7
0150 08                INC     R0
0151 8005              SJMP    ?C0169
0153         ?C0168:
0153 C3                CLR     C
0154 33                RLC     A
0155 CE                XCH     A,R6
0156 33                RLC     A
0157 CE                XCH     A,R6
0158         ?C0169:
0158 D8F9              DJNZ    R0,?C0168
015A FF                MOV     R7,A
015B EE                MOV     A,R6
015C 5C                ANL     A,R4
015D FE                MOV     R6,A
015E EF                MOV     A,R7
015F 5D                ANL     A,R5
0160 4E                ORL     A,R6
0161 6006              JZ      ?C0094
                                           ; SOURCE LINE # 285
0163 AF00        R     MOV     R7,fc+01H
0165 AE00        R     MOV     R6,fc
0167 8004              SJMP    ?C0194
0169         ?C0094:
                                           ; SOURCE LINE # 287
0169 AF00        R     MOV     R7,bc+01H
016B AE00        R     MOV     R6,bc
016D         ?C0194:
016D 120000      E     LCALL   _LCD_Write_Word
0170         ?C0095:
C51 COMPILER V9.57.0.0   GUI                                                               02/19/2022 23:37:22 PAGE 41  

                                           ; SOURCE LINE # 288
0170 900000      R     MOV     DPTR,#m
0173 E0                MOVX    A,@DPTR
0174 04                INC     A
0175 F0                MOVX    @DPTR,A
                                           ; SOURCE LINE # 289
0176 E0                MOVX    A,@DPTR
0177 8500F0      R     MOV     B,sizey
017A 84                DIV     AB
017B E5F0              MOV     A,B
017D 6003              JZ      $ + 5H
017F 020000      R     LJMP    ?C0092
                                           ; SOURCE LINE # 290
                                           ; SOURCE LINE # 291
0182 F0                MOVX    @DPTR,A
                                           ; SOURCE LINE # 292
0183 020000      R     LJMP    ?C0089
                                           ; SOURCE LINE # 293
                                           ; SOURCE LINE # 294
0186         ?C0093:
                                           ; SOURCE LINE # 296
                                           ; SOURCE LINE # 297
0186 900000      R     MOV     DPTR,#i
0189 E0                MOVX    A,@DPTR
018A FF                MOV     R7,A
018B 900000      R     MOV     DPTR,#k
018E E0                MOVX    A,@DPTR
018F FC                MOV     R4,A
0190 A3                INC     DPTR
0191 E0                MOVX    A,@DPTR
0192 900000      R     MOV     DPTR,#tfont24+02H
0195 75F04A            MOV     B,#04AH
0198 120000      E     LCALL   ?C?OFFXADD
019B EC                MOV     A,R4
019C 75F04A            MOV     B,#04AH
019F A4                MUL     AB
01A0 2583              ADD     A,DPH
01A2 F583              MOV     DPH,A
01A4 E582              MOV     A,DPL
01A6 2F                ADD     A,R7
01A7 F582              MOV     DPL,A
01A9 E4                CLR     A
01AA 3583              ADDC    A,DPH
01AC F583              MOV     DPH,A
01AE E4                CLR     A
01AF 93                MOVC    A,@A+DPTR
01B0 FD                MOV     R5,A
01B1 7C00              MOV     R4,#00H
01B3 900000      R     MOV     DPTR,#j
01B6 E0                MOVX    A,@DPTR
01B7 FF                MOV     R7,A
01B8 7401              MOV     A,#01H
01BA 7E00              MOV     R6,#00H
01BC A807              MOV     R0,AR7
01BE 08                INC     R0
01BF 8005              SJMP    ?C0171
01C1         ?C0170:
01C1 C3                CLR     C
01C2 33                RLC     A
01C3 CE                XCH     A,R6
01C4 33                RLC     A
01C5 CE                XCH     A,R6
C51 COMPILER V9.57.0.0   GUI                                                               02/19/2022 23:37:22 PAGE 42  

01C6         ?C0171:
01C6 D8F9              DJNZ    R0,?C0170
01C8 FF                MOV     R7,A
01C9 EE                MOV     A,R6
01CA 5C                ANL     A,R4
01CB FE                MOV     R6,A
01CC EF                MOV     A,R7
01CD 5D                ANL     A,R5
01CE 4E                ORL     A,R6
01CF 600F              JZ      ?C0098
                                           ; SOURCE LINE # 298
01D1 AB00        R     MOV     R3,fc+01H
01D3 AA00        R     MOV     R2,fc
01D5 AD00        R     MOV     R5,y+01H
01D7 AC00        R     MOV     R4,y
01D9 AF00        R     MOV     R7,x+01H
01DB AE00        R     MOV     R6,x
01DD 120000      R     LCALL   _GUI_DrawPoint
01E0         ?C0098:
                                           ; SOURCE LINE # 299
01E0 0500        R     INC     x+01H
01E2 E500        R     MOV     A,x+01H
01E4 7002              JNZ     ?C0172
01E6 0500        R     INC     x
01E8         ?C0172:
                                           ; SOURCE LINE # 300
01E8 900000      R     MOV     DPTR,#x0
01EB E0                MOVX    A,@DPTR
01EC FE                MOV     R6,A
01ED A3                INC     DPTR
01EE E0                MOVX    A,@DPTR
01EF FF                MOV     R7,A
01F0 C3                CLR     C
01F1 E500        R     MOV     A,x+01H
01F3 9F                SUBB    A,R7
01F4 FD                MOV     R5,A
01F5 E500        R     MOV     A,x
01F7 9E                SUBB    A,R6
01F8 FC                MOV     R4,A
01F9 7A00              MOV     R2,#00H
01FB ED                MOV     A,R5
01FC B50012            CJNE    A,sizey,?C0092
01FF EA                MOV     A,R2
0200 B5040E            CJNE    A,AR4,?C0092
                                           ; SOURCE LINE # 301
                                           ; SOURCE LINE # 302
0203 8E00        R     MOV     x,R6
0205 8F00        R     MOV     x+01H,R7
                                           ; SOURCE LINE # 303
0207 0500        R     INC     y+01H
0209 E500        R     MOV     A,y+01H
020B 700D              JNZ     ?C0089
020D 0500        R     INC     y
020F         ?C0174:
                                           ; SOURCE LINE # 304
020F 8009              SJMP    ?C0089
                                           ; SOURCE LINE # 305
                                           ; SOURCE LINE # 306
                                           ; SOURCE LINE # 307
0211         ?C0092:
0211 900000      R     MOV     DPTR,#j
0214 E0                MOVX    A,@DPTR
C51 COMPILER V9.57.0.0   GUI                                                               02/19/2022 23:37:22 PAGE 43  

0215 04                INC     A
0216 F0                MOVX    @DPTR,A
0217 020000      R     LJMP    ?C0090
                                           ; SOURCE LINE # 308
021A         ?C0089:
021A 900000      R     MOV     DPTR,#i
021D E0                MOVX    A,@DPTR
021E 04                INC     A
021F F0                MOVX    @DPTR,A
0220 020000      R     LJMP    ?C0087
                                           ; SOURCE LINE # 309
                                           ; SOURCE LINE # 310
                                           ; SOURCE LINE # 311
0223         ?C0085:
0223 900000      R     MOV     DPTR,#k+01H
0226 E0                MOVX    A,@DPTR
0227 04                INC     A
0228 F0                MOVX    @DPTR,A
0229 7006              JNZ     ?C0175
022B 900000      R     MOV     DPTR,#k
022E E0                MOVX    A,@DPTR
022F 04                INC     A
0230 F0                MOVX    @DPTR,A
0231         ?C0175:
0231 020000      R     LJMP    ?C0083
                                           ; SOURCE LINE # 312
0234         ?C0100:
0234 22                RET     
             ; FUNCTION _GUI_ShowChinese24x24 (END)

             ; FUNCTION _GUI_ShowChinese32x32 (BEGIN)
                                           ; SOURCE LINE # 324
0000 8E00        R     MOV     x,R6
0002 8F00        R     MOV     x+01H,R7
0004 8C00        R     MOV     y,R4
0006 8D00        R     MOV     y+01H,R5
0008 8B00        R     MOV     s,R3
000A 8A00        R     MOV     s+01H,R2
000C 8900        R     MOV     s+02H,R1
                                           ; SOURCE LINE # 325
                                           ; SOURCE LINE # 326
000E E4                CLR     A
000F 900000      R     MOV     DPTR,#m
0012 F0                MOVX    @DPTR,A
                                           ; SOURCE LINE # 330
0013 900000      R     MOV     DPTR,#x0
0016 E500        R     MOV     A,x
0018 F0                MOVX    @DPTR,A
0019 A3                INC     DPTR
001A E500        R     MOV     A,x+01H
001C F0                MOVX    @DPTR,A
                                           ; SOURCE LINE # 331
001D E500        R     MOV     A,sizey
001F 13                RRC     A
0020 13                RRC     A
0021 13                RRC     A
0022 541F              ANL     A,#01FH
0024 FF                MOV     R7,A
0025 7E00              MOV     R6,#00H
0027 E500        R     MOV     A,sizey
0029 5407              ANL     A,#07H
002B 7C00              MOV     R4,#00H
C51 COMPILER V9.57.0.0   GUI                                                               02/19/2022 23:37:22 PAGE 44  

002D 6004              JZ      ?C0101
002F 7D01              MOV     R5,#01H
0031 8002              SJMP    ?C0102
0033         ?C0101:
0033 7D00              MOV     R5,#00H
0035         ?C0102:
0035 ED                MOV     A,R5
0036 2F                ADD     A,R7
0037 FF                MOV     R7,A
0038 EC                MOV     A,R4
0039 3E                ADDC    A,R6
003A FE                MOV     R6,A
003B AD00        R     MOV     R5,sizey
003D 7C00              MOV     R4,#00H
003F 120000      E     LCALL   ?C?IMUL
0042 900000      R     MOV     DPTR,#TypefaceNum
0045 EE                MOV     A,R6
0046 F0                MOVX    @DPTR,A
0047 A3                INC     DPTR
0048 EF                MOV     A,R7
0049 F0                MOVX    @DPTR,A
                                           ; SOURCE LINE # 332
004A 900000      R     MOV     DPTR,#HZnum
004D E4                CLR     A
004E F0                MOVX    @DPTR,A
004F A3                INC     DPTR
0050 7405              MOV     A,#05H
0052 F0                MOVX    @DPTR,A
                                           ; SOURCE LINE # 333
0053 E4                CLR     A
0054 900000      R     MOV     DPTR,#k
0057 F0                MOVX    @DPTR,A
0058 A3                INC     DPTR
0059 F0                MOVX    @DPTR,A
005A         ?C0103:
005A 900000      R     MOV     DPTR,#HZnum
005D E0                MOVX    A,@DPTR
005E FE                MOV     R6,A
005F A3                INC     DPTR
0060 E0                MOVX    A,@DPTR
0061 FF                MOV     R7,A
0062 900000      R     MOV     DPTR,#k
0065 E0                MOVX    A,@DPTR
0066 FC                MOV     R4,A
0067 A3                INC     DPTR
0068 E0                MOVX    A,@DPTR
0069 FD                MOV     R5,A
006A C3                CLR     C
006B 9F                SUBB    A,R7
006C EC                MOV     A,R4
006D 9E                SUBB    A,R6
006E 4003              JC      $ + 5H
0070 020000      R     LJMP    ?C0120
                                           ; SOURCE LINE # 334
                                           ; SOURCE LINE # 335
0073 AB00        R     MOV     R3,s
0075 AA00        R     MOV     R2,s+01H
0077 A900        R     MOV     R1,s+02H
0079 120000      E     LCALL   ?C?CLDPTR
007C FF                MOV     R7,A
007D 900000      R     MOV     DPTR,#tfont32
0080 75F082            MOV     B,#082H
C51 COMPILER V9.57.0.0   GUI                                                               02/19/2022 23:37:22 PAGE 45  

0083 ED                MOV     A,R5
0084 120000      E     LCALL   ?C?OFFXADD
0087 EC                MOV     A,R4
0088 75F082            MOV     B,#082H
008B A4                MUL     AB
008C 2583              ADD     A,DPH
008E F583              MOV     DPH,A
0090 E4                CLR     A
0091 93                MOVC    A,@A+DPTR
0092 6F                XRL     A,R7
0093 6003              JZ      $ + 5H
0095 020000      R     LJMP    ?C0105
0098 900001            MOV     DPTR,#01H
009B 120000      E     LCALL   ?C?CLDOPTR
009E FF                MOV     R7,A
009F 900000      R     MOV     DPTR,#k
00A2 A3                INC     DPTR
00A3 E0                MOVX    A,@DPTR
00A4 900000      R     MOV     DPTR,#tfont32+01H
00A7 75F082            MOV     B,#082H
00AA 120000      E     LCALL   ?C?OFFXADD
00AD EC                MOV     A,R4
00AE 75F082            MOV     B,#082H
00B1 A4                MUL     AB
00B2 2583              ADD     A,DPH
00B4 F583              MOV     DPH,A
00B6 E4                CLR     A
00B7 93                MOVC    A,@A+DPTR
00B8 6F                XRL     A,R7
00B9 6003              JZ      $ + 5H
00BB 020000      R     LJMP    ?C0105
                                           ; SOURCE LINE # 336
                                           ; SOURCE LINE # 337
00BE AF00        R     MOV     R7,sizey
00C0 FE                MOV     R6,A
00C1 E500        R     MOV     A,x+01H
00C3 2F                ADD     A,R7
00C4 CD                XCH     A,R5
00C5 EE                MOV     A,R6
00C6 3500        R     ADDC    A,x
00C8 CD                XCH     A,R5
00C9 24FF              ADD     A,#0FFH
00CB FB                MOV     R3,A
00CC ED                MOV     A,R5
00CD 34FF              ADDC    A,#0FFH
00CF FA                MOV     R2,A
00D0 E500        R     MOV     A,y+01H
00D2 2F                ADD     A,R7
00D3 CF                XCH     A,R7
00D4 EE                MOV     A,R6
00D5 3500        R     ADDC    A,y
00D7 CF                XCH     A,R7
00D8 24FF              ADD     A,#0FFH
00DA F500        E     MOV     ?_LCD_Addr_Set?BYTE+07H,A
00DC EF                MOV     A,R7
00DD 34FF              ADDC    A,#0FFH
00DF F500        E     MOV     ?_LCD_Addr_Set?BYTE+06H,A
00E1 AD00        R     MOV     R5,y+01H
00E3 AC00        R     MOV     R4,y
00E5 AF00        R     MOV     R7,x+01H
00E7 AE00        R     MOV     R6,x
00E9 120000      E     LCALL   _LCD_Addr_Set
C51 COMPILER V9.57.0.0   GUI                                                               02/19/2022 23:37:22 PAGE 46  

                                           ; SOURCE LINE # 338
00EC E4                CLR     A
00ED 900000      R     MOV     DPTR,#i
00F0 F0                MOVX    @DPTR,A
00F1         ?C0107:
00F1 900000      R     MOV     DPTR,#i
00F4 E0                MOVX    A,@DPTR
00F5 FF                MOV     R7,A
00F6 D3                SETB    C
00F7 900000      R     MOV     DPTR,#TypefaceNum+01H
00FA E0                MOVX    A,@DPTR
00FB 9F                SUBB    A,R7
00FC 900000      R     MOV     DPTR,#TypefaceNum
00FF E0                MOVX    A,@DPTR
0100 9400              SUBB    A,#00H
0102 5003              JNC     $ + 5H
0104 020000      R     LJMP    ?C0105
                                           ; SOURCE LINE # 339
                                           ; SOURCE LINE # 340
0107 E4                CLR     A
0108 900000      R     MOV     DPTR,#j
010B F0                MOVX    @DPTR,A
010C         ?C0110:
010C 900000      R     MOV     DPTR,#j
010F E0                MOVX    A,@DPTR
0110 FF                MOV     R7,A
0111 C3                CLR     C
0112 9408              SUBB    A,#08H
0114 4003              JC      $ + 5H
0116 020000      R     LJMP    ?C0109
                                           ; SOURCE LINE # 341
                                           ; SOURCE LINE # 342
0119 E500        R     MOV     A,mode
011B 7069              JNZ     ?C0113
                                           ; SOURCE LINE # 343
                                           ; SOURCE LINE # 344
011D 900000      R     MOV     DPTR,#i
0120 E0                MOVX    A,@DPTR
0121 FE                MOV     R6,A
0122 900000      R     MOV     DPTR,#k
0125 E0                MOVX    A,@DPTR
0126 FC                MOV     R4,A
0127 A3                INC     DPTR
0128 E0                MOVX    A,@DPTR
0129 900000      R     MOV     DPTR,#tfont32+02H
012C 75F082            MOV     B,#082H
012F 120000      E     LCALL   ?C?OFFXADD
0132 EC                MOV     A,R4
0133 75F082            MOV     B,#082H
0136 A4                MUL     AB
0137 2583              ADD     A,DPH
0139 F583              MOV     DPH,A
013B E582              MOV     A,DPL
013D 2E                ADD     A,R6
013E F582              MOV     DPL,A
0140 E4                CLR     A
0141 3583              ADDC    A,DPH
0143 F583              MOV     DPH,A
0145 E4                CLR     A
0146 93                MOVC    A,@A+DPTR
0147 FD                MOV     R5,A
0148 7C00              MOV     R4,#00H
C51 COMPILER V9.57.0.0   GUI                                                               02/19/2022 23:37:22 PAGE 47  

014A 7401              MOV     A,#01H
014C 7E00              MOV     R6,#00H
014E A807              MOV     R0,AR7
0150 08                INC     R0
0151 8005              SJMP    ?C0177
0153         ?C0176:
0153 C3                CLR     C
0154 33                RLC     A
0155 CE                XCH     A,R6
0156 33                RLC     A
0157 CE                XCH     A,R6
0158         ?C0177:
0158 D8F9              DJNZ    R0,?C0176
015A FF                MOV     R7,A
015B EE                MOV     A,R6
015C 5C                ANL     A,R4
015D FE                MOV     R6,A
015E EF                MOV     A,R7
015F 5D                ANL     A,R5
0160 4E                ORL     A,R6
0161 6006              JZ      ?C0114
                                           ; SOURCE LINE # 345
0163 AF00        R     MOV     R7,fc+01H
0165 AE00        R     MOV     R6,fc
0167 8004              SJMP    ?C0195
0169         ?C0114:
                                           ; SOURCE LINE # 347
0169 AF00        R     MOV     R7,bc+01H
016B AE00        R     MOV     R6,bc
016D         ?C0195:
016D 120000      E     LCALL   _LCD_Write_Word
0170         ?C0115:
                                           ; SOURCE LINE # 348
0170 900000      R     MOV     DPTR,#m
0173 E0                MOVX    A,@DPTR
0174 04                INC     A
0175 F0                MOVX    @DPTR,A
                                           ; SOURCE LINE # 349
0176 E0                MOVX    A,@DPTR
0177 8500F0      R     MOV     B,sizey
017A 84                DIV     AB
017B E5F0              MOV     A,B
017D 6003              JZ      $ + 5H
017F 020000      R     LJMP    ?C0112
                                           ; SOURCE LINE # 350
                                           ; SOURCE LINE # 351
0182 F0                MOVX    @DPTR,A
                                           ; SOURCE LINE # 352
0183 020000      R     LJMP    ?C0109
                                           ; SOURCE LINE # 353
                                           ; SOURCE LINE # 354
0186         ?C0113:
                                           ; SOURCE LINE # 356
                                           ; SOURCE LINE # 357
0186 900000      R     MOV     DPTR,#i
0189 E0                MOVX    A,@DPTR
018A FF                MOV     R7,A
018B 900000      R     MOV     DPTR,#k
018E E0                MOVX    A,@DPTR
018F FC                MOV     R4,A
0190 A3                INC     DPTR
0191 E0                MOVX    A,@DPTR
C51 COMPILER V9.57.0.0   GUI                                                               02/19/2022 23:37:22 PAGE 48  

0192 900000      R     MOV     DPTR,#tfont32+02H
0195 75F082            MOV     B,#082H
0198 120000      E     LCALL   ?C?OFFXADD
019B EC                MOV     A,R4
019C 75F082            MOV     B,#082H
019F A4                MUL     AB
01A0 2583              ADD     A,DPH
01A2 F583              MOV     DPH,A
01A4 E582              MOV     A,DPL
01A6 2F                ADD     A,R7
01A7 F582              MOV     DPL,A
01A9 E4                CLR     A
01AA 3583              ADDC    A,DPH
01AC F583              MOV     DPH,A
01AE E4                CLR     A
01AF 93                MOVC    A,@A+DPTR
01B0 FD                MOV     R5,A
01B1 7C00              MOV     R4,#00H
01B3 900000      R     MOV     DPTR,#j
01B6 E0                MOVX    A,@DPTR
01B7 FF                MOV     R7,A
01B8 7401              MOV     A,#01H
01BA 7E00              MOV     R6,#00H
01BC A807              MOV     R0,AR7
01BE 08                INC     R0
01BF 8005              SJMP    ?C0179
01C1         ?C0178:
01C1 C3                CLR     C
01C2 33                RLC     A
01C3 CE                XCH     A,R6
01C4 33                RLC     A
01C5 CE                XCH     A,R6
01C6         ?C0179:
01C6 D8F9              DJNZ    R0,?C0178
01C8 FF                MOV     R7,A
01C9 EE                MOV     A,R6
01CA 5C                ANL     A,R4
01CB FE                MOV     R6,A
01CC EF                MOV     A,R7
01CD 5D                ANL     A,R5
01CE 4E                ORL     A,R6
01CF 600F              JZ      ?C0118
                                           ; SOURCE LINE # 358
01D1 AB00        R     MOV     R3,fc+01H
01D3 AA00        R     MOV     R2,fc
01D5 AD00        R     MOV     R5,y+01H
01D7 AC00        R     MOV     R4,y
01D9 AF00        R     MOV     R7,x+01H
01DB AE00        R     MOV     R6,x
01DD 120000      R     LCALL   _GUI_DrawPoint
01E0         ?C0118:
                                           ; SOURCE LINE # 359
01E0 0500        R     INC     x+01H
01E2 E500        R     MOV     A,x+01H
01E4 7002              JNZ     ?C0180
01E6 0500        R     INC     x
01E8         ?C0180:
                                           ; SOURCE LINE # 360
01E8 900000      R     MOV     DPTR,#x0
01EB E0                MOVX    A,@DPTR
01EC FE                MOV     R6,A
01ED A3                INC     DPTR
C51 COMPILER V9.57.0.0   GUI                                                               02/19/2022 23:37:22 PAGE 49  

01EE E0                MOVX    A,@DPTR
01EF FF                MOV     R7,A
01F0 C3                CLR     C
01F1 E500        R     MOV     A,x+01H
01F3 9F                SUBB    A,R7
01F4 FD                MOV     R5,A
01F5 E500        R     MOV     A,x
01F7 9E                SUBB    A,R6
01F8 FC                MOV     R4,A
01F9 7A00              MOV     R2,#00H
01FB ED                MOV     A,R5
01FC B50012            CJNE    A,sizey,?C0112
01FF EA                MOV     A,R2
0200 B5040E            CJNE    A,AR4,?C0112
                                           ; SOURCE LINE # 361
                                           ; SOURCE LINE # 362
0203 8E00        R     MOV     x,R6
0205 8F00        R     MOV     x+01H,R7
                                           ; SOURCE LINE # 363
0207 0500        R     INC     y+01H
0209 E500        R     MOV     A,y+01H
020B 700D              JNZ     ?C0109
020D 0500        R     INC     y
020F         ?C0182:
                                           ; SOURCE LINE # 364
020F 8009              SJMP    ?C0109
                                           ; SOURCE LINE # 365
                                           ; SOURCE LINE # 366
                                           ; SOURCE LINE # 367
0211         ?C0112:
0211 900000      R     MOV     DPTR,#j
0214 E0                MOVX    A,@DPTR
0215 04                INC     A
0216 F0                MOVX    @DPTR,A
0217 020000      R     LJMP    ?C0110
                                           ; SOURCE LINE # 368
021A         ?C0109:
021A 900000      R     MOV     DPTR,#i
021D E0                MOVX    A,@DPTR
021E 04                INC     A
021F F0                MOVX    @DPTR,A
0220 020000      R     LJMP    ?C0107
                                           ; SOURCE LINE # 369
                                           ; SOURCE LINE # 370
                                           ; SOURCE LINE # 371
0223         ?C0105:
0223 900000      R     MOV     DPTR,#k+01H
0226 E0                MOVX    A,@DPTR
0227 04                INC     A
0228 F0                MOVX    @DPTR,A
0229 7006              JNZ     ?C0183
022B 900000      R     MOV     DPTR,#k
022E E0                MOVX    A,@DPTR
022F 04                INC     A
0230 F0                MOVX    @DPTR,A
0231         ?C0183:
0231 020000      R     LJMP    ?C0103
                                           ; SOURCE LINE # 372
0234         ?C0120:
0234 22                RET     
             ; FUNCTION _GUI_ShowChinese32x32 (END)

C51 COMPILER V9.57.0.0   GUI                                                               02/19/2022 23:37:22 PAGE 50  

             ; FUNCTION _GUI_ShowChar (BEGIN)
                                           ; SOURCE LINE # 384
0000 8E00        R     MOV     x,R6
0002 8F00        R     MOV     x+01H,R7
0004 8C00        R     MOV     y,R4
0006 8D00        R     MOV     y+01H,R5
0008 8B00        R     MOV     num,R3
                                           ; SOURCE LINE # 385
                                           ; SOURCE LINE # 386
000A E4                CLR     A
000B 900000      R     MOV     DPTR,#m
000E F0                MOVX    @DPTR,A
                                           ; SOURCE LINE # 388
000F 900000      R     MOV     DPTR,#x0
0012 E500        R     MOV     A,x
0014 F0                MOVX    @DPTR,A
0015 A3                INC     DPTR
0016 E500        R     MOV     A,x+01H
0018 F0                MOVX    @DPTR,A
                                           ; SOURCE LINE # 389
0019 E500        R     MOV     A,sizey
001B C3                CLR     C
001C 13                RRC     A
001D 900000      R     MOV     DPTR,#sizex
0020 F0                MOVX    @DPTR,A
                                           ; SOURCE LINE # 390
0021 E0                MOVX    A,@DPTR
0022 FF                MOV     R7,A
0023 13                RRC     A
0024 13                RRC     A
0025 13                RRC     A
0026 541F              ANL     A,#01FH
0028 FD                MOV     R5,A
0029 7C00              MOV     R4,#00H
002B EF                MOV     A,R7
002C 5407              ANL     A,#07H
002E 7E00              MOV     R6,#00H
0030 6004              JZ      ?C0121
0032 7F01              MOV     R7,#01H
0034 8002              SJMP    ?C0122
0036         ?C0121:
0036 7F00              MOV     R7,#00H
0038         ?C0122:
0038 EF                MOV     A,R7
0039 2D                ADD     A,R5
003A FF                MOV     R7,A
003B EE                MOV     A,R6
003C 3C                ADDC    A,R4
003D FE                MOV     R6,A
003E AD00        R     MOV     R5,sizey
0040 7C00              MOV     R4,#00H
0042 120000      E     LCALL   ?C?IMUL
0045 900000      R     MOV     DPTR,#TypefaceNum
0048 EE                MOV     A,R6
0049 F0                MOVX    @DPTR,A
004A A3                INC     DPTR
004B EF                MOV     A,R7
004C F0                MOVX    @DPTR,A
                                           ; SOURCE LINE # 391
004D 74E0              MOV     A,#0E0H
004F 2500        R     ADD     A,num
0051 F500        R     MOV     num,A
C51 COMPILER V9.57.0.0   GUI                                                               02/19/2022 23:37:22 PAGE 51  

                                           ; SOURCE LINE # 392
0053 900000      R     MOV     DPTR,#sizex
0056 E0                MOVX    A,@DPTR
0057 FF                MOV     R7,A
0058 7E00              MOV     R6,#00H
005A 2500        R     ADD     A,x+01H
005C CF                XCH     A,R7
005D EE                MOV     A,R6
005E 3500        R     ADDC    A,x
0060 CF                XCH     A,R7
0061 24FF              ADD     A,#0FFH
0063 FB                MOV     R3,A
0064 EF                MOV     A,R7
0065 34FF              ADDC    A,#0FFH
0067 FA                MOV     R2,A
0068 AF00        R     MOV     R7,sizey
006A E500        R     MOV     A,y+01H
006C 2500        R     ADD     A,sizey
006E CF                XCH     A,R7
006F EE                MOV     A,R6
0070 3500        R     ADDC    A,y
0072 CF                XCH     A,R7
0073 24FF              ADD     A,#0FFH
0075 F500        E     MOV     ?_LCD_Addr_Set?BYTE+07H,A
0077 EF                MOV     A,R7
0078 34FF              ADDC    A,#0FFH
007A F500        E     MOV     ?_LCD_Addr_Set?BYTE+06H,A
007C AD00        R     MOV     R5,y+01H
007E AC00        R     MOV     R4,y
0080 AF00        R     MOV     R7,x+01H
0082 AE00        R     MOV     R6,x
0084 120000      E     LCALL   _LCD_Addr_Set
                                           ; SOURCE LINE # 393
0087 E4                CLR     A
0088 900000      R     MOV     DPTR,#i
008B F0                MOVX    @DPTR,A
008C A3                INC     DPTR
008D F0                MOVX    @DPTR,A
008E         ?C0123:
008E 900000      R     MOV     DPTR,#TypefaceNum
0091 E0                MOVX    A,@DPTR
0092 FE                MOV     R6,A
0093 A3                INC     DPTR
0094 E0                MOVX    A,@DPTR
0095 FF                MOV     R7,A
0096 900000      R     MOV     DPTR,#i
0099 E0                MOVX    A,@DPTR
009A FC                MOV     R4,A
009B A3                INC     DPTR
009C E0                MOVX    A,@DPTR
009D FD                MOV     R5,A
009E C3                CLR     C
009F 9F                SUBB    A,R7
00A0 EC                MOV     A,R4
00A1 9E                SUBB    A,R6
00A2 4003              JC      $ + 5H
00A4 020000      R     LJMP    ?C0134
                                           ; SOURCE LINE # 394
                                           ; SOURCE LINE # 395
00A7 E500        R     MOV     A,sizey
00A9 B40C1A            CJNE    A,#0CH,?C0126
                                           ; SOURCE LINE # 396
C51 COMPILER V9.57.0.0   GUI                                                               02/19/2022 23:37:22 PAGE 52  

00AC 75F00C            MOV     B,#0CH
00AF E500        R     MOV     A,num
00B1 A4                MUL     AB
00B2 2400        R     ADD     A,#LOW ascii_1206
00B4 F582              MOV     DPL,A
00B6 E5F0              MOV     A,B
00B8 3400        R     ADDC    A,#HIGH ascii_1206
00BA F583              MOV     DPH,A
00BC E582              MOV     A,DPL
00BE 2D                ADD     A,R5
00BF F582              MOV     DPL,A
00C1 E583              MOV     A,DPH
00C3 3C                ADDC    A,R4
00C4 8077              SJMP    ?C0198
00C6         ?C0126:
                                           ; SOURCE LINE # 397
00C6 E500        R     MOV     A,sizey
00C8 B41022            CJNE    A,#010H,?C0128
                                           ; SOURCE LINE # 398
00CB 900000      R     MOV     DPTR,#i
00CE E0                MOVX    A,@DPTR
00CF FE                MOV     R6,A
00D0 A3                INC     DPTR
00D1 E0                MOVX    A,@DPTR
00D2 FF                MOV     R7,A
00D3 75F010            MOV     B,#010H
00D6 E500        R     MOV     A,num
00D8 A4                MUL     AB
00D9 2400        R     ADD     A,#LOW ascii_1608
00DB F582              MOV     DPL,A
00DD E5F0              MOV     A,B
00DF 3400        R     ADDC    A,#HIGH ascii_1608
00E1 F583              MOV     DPH,A
00E3 E582              MOV     A,DPL
00E5 2F                ADD     A,R7
00E6 F582              MOV     DPL,A
00E8 E583              MOV     A,DPH
00EA 3E                ADDC    A,R6
00EB         ?C0196:
00EB 8050              SJMP    ?C0198
00ED         ?C0128:
                                           ; SOURCE LINE # 399
00ED E500        R     MOV     A,sizey
00EF B41822            CJNE    A,#018H,?C0130
                                           ; SOURCE LINE # 400
00F2 900000      R     MOV     DPTR,#i
00F5 E0                MOVX    A,@DPTR
00F6 FE                MOV     R6,A
00F7 A3                INC     DPTR
00F8 E0                MOVX    A,@DPTR
00F9 FF                MOV     R7,A
00FA 75F030            MOV     B,#030H
00FD E500        R     MOV     A,num
00FF A4                MUL     AB
0100 2400        R     ADD     A,#LOW ascii_2412
0102 F582              MOV     DPL,A
0104 E5F0              MOV     A,B
0106 3400        R     ADDC    A,#HIGH ascii_2412
0108 F583              MOV     DPH,A
010A E582              MOV     A,DPL
010C 2F                ADD     A,R7
010D F582              MOV     DPL,A
C51 COMPILER V9.57.0.0   GUI                                                               02/19/2022 23:37:22 PAGE 53  

010F E583              MOV     A,DPH
0111 3E                ADDC    A,R6
0112         ?C0197:
0112 8029              SJMP    ?C0198
0114         ?C0130:
                                           ; SOURCE LINE # 401
0114 E500        R     MOV     A,sizey
0116 6420              XRL     A,#020H
0118 6003              JZ      $ + 5H
011A 020000      R     LJMP    ?C0134
                                           ; SOURCE LINE # 402
011D 900000      R     MOV     DPTR,#i
0120 E0                MOVX    A,@DPTR
0121 FE                MOV     R6,A
0122 A3                INC     DPTR
0123 E0                MOVX    A,@DPTR
0124 FF                MOV     R7,A
0125 75F040            MOV     B,#040H
0128 E500        R     MOV     A,num
012A A4                MUL     AB
012B 2400        R     ADD     A,#LOW ascii_3216
012D F582              MOV     DPL,A
012F E5F0              MOV     A,B
0131 3400        R     ADDC    A,#HIGH ascii_3216
0133 F583              MOV     DPH,A
0135 E582              MOV     A,DPL
0137 2F                ADD     A,R7
0138 F582              MOV     DPL,A
013A E583              MOV     A,DPH
013C 3E                ADDC    A,R6
013D         ?C0198:
013D F583              MOV     DPH,A
013F E4                CLR     A
0140 93                MOVC    A,@A+DPTR
0141 900000      R     MOV     DPTR,#temp
0144 F0                MOVX    @DPTR,A
0145         ?C0127:
                                           ; SOURCE LINE # 405
0145 E4                CLR     A
0146 900000      R     MOV     DPTR,#t
0149 F0                MOVX    @DPTR,A
014A         ?C0135:
014A 900000      R     MOV     DPTR,#t
014D E0                MOVX    A,@DPTR
014E FF                MOV     R7,A
014F C3                CLR     C
0150 9408              SUBB    A,#08H
0152 4003              JC      $ + 5H
0154 020000      R     LJMP    ?C0125
                                           ; SOURCE LINE # 406
                                           ; SOURCE LINE # 407
0157 E500        R     MOV     A,mode
0159 703F              JNZ     ?C0138
                                           ; SOURCE LINE # 408
                                           ; SOURCE LINE # 409
015B 04                INC     A
015C 7E00              MOV     R6,#00H
015E A807              MOV     R0,AR7
0160 08                INC     R0
0161 8005              SJMP    ?C0185
0163         ?C0184:
0163 C3                CLR     C
C51 COMPILER V9.57.0.0   GUI                                                               02/19/2022 23:37:22 PAGE 54  

0164 33                RLC     A
0165 CE                XCH     A,R6
0166 33                RLC     A
0167 CE                XCH     A,R6
0168         ?C0185:
0168 D8F9              DJNZ    R0,?C0184
016A FF                MOV     R7,A
016B 900000      R     MOV     DPTR,#temp
016E E0                MOVX    A,@DPTR
016F FD                MOV     R5,A
0170 EF                MOV     A,R7
0171 5D                ANL     A,R5
0172 6006              JZ      ?C0139
                                           ; SOURCE LINE # 410
0174 AF00        R     MOV     R7,fc+01H
0176 AE00        R     MOV     R6,fc
0178 8004              SJMP    ?C0199
017A         ?C0139:
                                           ; SOURCE LINE # 412
017A AF00        R     MOV     R7,bc+01H
017C AE00        R     MOV     R6,bc
017E         ?C0199:
017E 120000      E     LCALL   _LCD_Write_Word
0181         ?C0140:
                                           ; SOURCE LINE # 413
0181 900000      R     MOV     DPTR,#m
0184 E0                MOVX    A,@DPTR
0185 04                INC     A
0186 F0                MOVX    @DPTR,A
                                           ; SOURCE LINE # 414
0187 900000      R     MOV     DPTR,#sizex
018A E0                MOVX    A,@DPTR
018B FF                MOV     R7,A
018C 900000      R     MOV     DPTR,#m
018F E0                MOVX    A,@DPTR
0190 8FF0              MOV     B,R7
0192 84                DIV     AB
0193 E5F0              MOV     A,B
0195 7065              JNZ     ?C0137
                                           ; SOURCE LINE # 415
                                           ; SOURCE LINE # 416
0197 F0                MOVX    @DPTR,A
                                           ; SOURCE LINE # 417
0198 806B              SJMP    ?C0125
                                           ; SOURCE LINE # 418
                                           ; SOURCE LINE # 419
019A         ?C0138:
                                           ; SOURCE LINE # 421
                                           ; SOURCE LINE # 422
019A 900000      R     MOV     DPTR,#t
019D E0                MOVX    A,@DPTR
019E FF                MOV     R7,A
019F 7401              MOV     A,#01H
01A1 7E00              MOV     R6,#00H
01A3 A807              MOV     R0,AR7
01A5 08                INC     R0
01A6 8005              SJMP    ?C0187
01A8         ?C0186:
01A8 C3                CLR     C
01A9 33                RLC     A
01AA CE                XCH     A,R6
01AB 33                RLC     A
C51 COMPILER V9.57.0.0   GUI                                                               02/19/2022 23:37:22 PAGE 55  

01AC CE                XCH     A,R6
01AD         ?C0187:
01AD D8F9              DJNZ    R0,?C0186
01AF FF                MOV     R7,A
01B0 900000      R     MOV     DPTR,#temp
01B3 E0                MOVX    A,@DPTR
01B4 FD                MOV     R5,A
01B5 EF                MOV     A,R7
01B6 5D                ANL     A,R5
01B7 600F              JZ      ?C0143
                                           ; SOURCE LINE # 423
01B9 AB00        R     MOV     R3,fc+01H
01BB AA00        R     MOV     R2,fc
01BD AD00        R     MOV     R5,y+01H
01BF AC00        R     MOV     R4,y
01C1 AF00        R     MOV     R7,x+01H
01C3 AE00        R     MOV     R6,x
01C5 120000      R     LCALL   _GUI_DrawPoint
01C8         ?C0143:
                                           ; SOURCE LINE # 424
01C8 0500        R     INC     x+01H
01CA E500        R     MOV     A,x+01H
01CC 7002              JNZ     ?C0188
01CE 0500        R     INC     x
01D0         ?C0188:
                                           ; SOURCE LINE # 425
01D0 900000      R     MOV     DPTR,#x0
01D3 E0                MOVX    A,@DPTR
01D4 FE                MOV     R6,A
01D5 A3                INC     DPTR
01D6 E0                MOVX    A,@DPTR
01D7 FF                MOV     R7,A
01D8 C3                CLR     C
01D9 E500        R     MOV     A,x+01H
01DB 9F                SUBB    A,R7
01DC FD                MOV     R5,A
01DD E500        R     MOV     A,x
01DF 9E                SUBB    A,R6
01E0 FC                MOV     R4,A
01E1 900000      R     MOV     DPTR,#sizex
01E4 E0                MOVX    A,@DPTR
01E5 7A00              MOV     R2,#00H
01E7 B50512            CJNE    A,AR5,?C0137
01EA EA                MOV     A,R2
01EB B5040E            CJNE    A,AR4,?C0137
                                           ; SOURCE LINE # 426
                                           ; SOURCE LINE # 427
01EE 8E00        R     MOV     x,R6
01F0 8F00        R     MOV     x+01H,R7
                                           ; SOURCE LINE # 428
01F2 0500        R     INC     y+01H
01F4 E500        R     MOV     A,y+01H
01F6 700D              JNZ     ?C0125
01F8 0500        R     INC     y
01FA         ?C0190:
                                           ; SOURCE LINE # 429
01FA 8009              SJMP    ?C0125
                                           ; SOURCE LINE # 430
                                           ; SOURCE LINE # 431
                                           ; SOURCE LINE # 432
01FC         ?C0137:
01FC 900000      R     MOV     DPTR,#t
C51 COMPILER V9.57.0.0   GUI                                                               02/19/2022 23:37:22 PAGE 56  

01FF E0                MOVX    A,@DPTR
0200 04                INC     A
0201 F0                MOVX    @DPTR,A
0202 020000      R     LJMP    ?C0135
                                           ; SOURCE LINE # 433
0205         ?C0125:
0205 900000      R     MOV     DPTR,#i+01H
0208 E0                MOVX    A,@DPTR
0209 04                INC     A
020A F0                MOVX    @DPTR,A
020B 7006              JNZ     ?C0191
020D 900000      R     MOV     DPTR,#i
0210 E0                MOVX    A,@DPTR
0211 04                INC     A
0212 F0                MOVX    @DPTR,A
0213         ?C0191:
0213 020000      R     LJMP    ?C0123
                                           ; SOURCE LINE # 434
0216         ?C0134:
0216 22                RET     
             ; FUNCTION _GUI_ShowChar (END)

             ; FUNCTION _GUI_ShowString (BEGIN)
                                           ; SOURCE LINE # 446
0000 8E00        R     MOV     x,R6
0002 8F00        R     MOV     x+01H,R7
0004 8C00        R     MOV     y,R4
0006 8D00        R     MOV     y+01H,R5
0008 8B00        R     MOV     p,R3
000A 8A00        R     MOV     p+01H,R2
000C 8900        R     MOV     p+02H,R1
                                           ; SOURCE LINE # 447
000E         ?C0145:
                                           ; SOURCE LINE # 448
000E AB00        R     MOV     R3,p
0010 AA00        R     MOV     R2,p+01H
0012 A900        R     MOV     R1,p+02H
0014 120000      E     LCALL   ?C?CLDPTR
0017 FB                MOV     R3,A
0018 6037              JZ      ?C0147
                                           ; SOURCE LINE # 449
                                           ; SOURCE LINE # 450
001A 850000      R     MOV     ?_GUI_ShowChar?BYTE+05H,fc
001D 850000      R     MOV     ?_GUI_ShowChar?BYTE+06H,fc+01H
0020 850000      R     MOV     ?_GUI_ShowChar?BYTE+07H,bc
0023 850000      R     MOV     ?_GUI_ShowChar?BYTE+08H,bc+01H
0026 850000      R     MOV     ?_GUI_ShowChar?BYTE+09H,sizey
0029 850000      R     MOV     ?_GUI_ShowChar?BYTE+0AH,mode
002C AD00        R     MOV     R5,y+01H
002E AC00        R     MOV     R4,y
0030 AF00        R     MOV     R7,x+01H
0032 AE00        R     MOV     R6,x
0034 120000      R     LCALL   _GUI_ShowChar
                                           ; SOURCE LINE # 451
0037 E500        R     MOV     A,sizey
0039 C3                CLR     C
003A 13                RRC     A
003B 2500        R     ADD     A,x+01H
003D F500        R     MOV     x+01H,A
003F E4                CLR     A
0040 3500        R     ADDC    A,x
0042 F500        R     MOV     x,A
C51 COMPILER V9.57.0.0   GUI                                                               02/19/2022 23:37:22 PAGE 57  

                                           ; SOURCE LINE # 452
0044 7401              MOV     A,#01H
0046 2500        R     ADD     A,p+02H
0048 F500        R     MOV     p+02H,A
004A E4                CLR     A
004B 3500        R     ADDC    A,p+01H
004D F500        R     MOV     p+01H,A
                                           ; SOURCE LINE # 453
004F 80BD              SJMP    ?C0145
                                           ; SOURCE LINE # 454
0051         ?C0147:
0051 22                RET     
             ; FUNCTION _GUI_ShowString (END)

C51 COMPILER V9.57.0.0   GUI                                                               02/19/2022 23:37:22 PAGE 58  

NAME                                    CLASS   MSPACE  TYPE    OFFSET  SIZE
====                                    =====   ======  ====    ======  ====


P0M1 . . . . . . . . . . . . . . . . .  SFR      DATA   U_CHAR   0093H  1
P1M0 . . . . . . . . . . . . . . . . .  SFR      DATA   U_CHAR   0092H  1
P2M0 . . . . . . . . . . . . . . . . .  SFR      DATA   U_CHAR   0096H  1
P1M1 . . . . . . . . . . . . . . . . .  SFR      DATA   U_CHAR   0091H  1
P0 . . . . . . . . . . . . . . . . . .  SFR      DATA   U_CHAR   0080H  1
P3M0 . . . . . . . . . . . . . . . . .  SFR      DATA   U_CHAR   00B2H  1
P2M1 . . . . . . . . . . . . . . . . .  SFR      DATA   U_CHAR   0095H  1
P1 . . . . . . . . . . . . . . . . . .  SFR      DATA   U_CHAR   0090H  1
P4M0 . . . . . . . . . . . . . . . . .  SFR      DATA   U_CHAR   00B4H  1
P3M1 . . . . . . . . . . . . . . . . .  SFR      DATA   U_CHAR   00B1H  1
P2 . . . . . . . . . . . . . . . . . .  SFR      DATA   U_CHAR   00A0H  1
LCDSCLK. . . . . . . . . . . . . . . .  ABSBIT   -----  BIT      00C8H  1
P5M0 . . . . . . . . . . . . . . . . .  SFR      DATA   U_CHAR   00CAH  1
P4M1 . . . . . . . . . . . . . . . . .  SFR      DATA   U_CHAR   00B3H  1
P3 . . . . . . . . . . . . . . . . . .  SFR      DATA   U_CHAR   00B0H  1
WKTCH. . . . . . . . . . . . . . . . .  SFR      DATA   U_CHAR   00ABH  1
AC . . . . . . . . . . . . . . . . . .  ABSBIT   -----  BIT      00D6H  1
P6M0 . . . . . . . . . . . . . . . . .  SFR      DATA   U_CHAR   00CCH  1
P5M1 . . . . . . . . . . . . . . . . .  SFR      DATA   U_CHAR   00C9H  1
P4 . . . . . . . . . . . . . . . . . .  SFR      DATA   U_CHAR   00C0H  1
P7M0 . . . . . . . . . . . . . . . . .  SFR      DATA   U_CHAR   00E2H  1
P6M1 . . . . . . . . . . . . . . . . .  SFR      DATA   U_CHAR   00CBH  1
P5 . . . . . . . . . . . . . . . . . .  SFR      DATA   U_CHAR   00C8H  1
P6 . . . . . . . . . . . . . . . . . .  SFR      DATA   U_CHAR   00E8H  1
P7M1 . . . . . . . . . . . . . . . . .  SFR      DATA   U_CHAR   00E1H  1
EA . . . . . . . . . . . . . . . . . .  ABSBIT   -----  BIT      00AFH  1
P7 . . . . . . . . . . . . . . . . . .  SFR      DATA   U_CHAR   00F8H  1
WKTCL. . . . . . . . . . . . . . . . .  SFR      DATA   U_CHAR   00AAH  1
GUIMenuStruct. . . . . . . . . . . . .  * TAG *  -----  STRUCT   -----  17
  Parent . . . . . . . . . . . . . . .  MEMBER   -----  PTR      0000H  3
  MenuLurrentLevel . . . . . . . . . .  MEMBER   -----  PTR      0003H  3
  ChildNext. . . . . . . . . . . . . .  MEMBER   -----  PTR      0006H  3
  _menuLevel . . . . . . . . . . . . .  MEMBER   -----  U_CHAR   0009H  1
  _location. . . . . . . . . . . . . .  MEMBER   -----  U_CHAR   000AH  1
  _name. . . . . . . . . . . . . . . .  MEMBER   -----  PTR      000BH  3
  function . . . . . . . . . . . . . .  MEMBER   -----  PTR      000EH  3
SPCTL. . . . . . . . . . . . . . . . .  SFR      DATA   U_CHAR   00CEH  1
P_SW1. . . . . . . . . . . . . . . . .  SFR      DATA   U_CHAR   00A2H  1
P_SW2. . . . . . . . . . . . . . . . .  SFR      DATA   U_CHAR   00BAH  1
LCDMOSI. . . . . . . . . . . . . . . .  ABSBIT   -----  BIT      00B3H  1
DPH1 . . . . . . . . . . . . . . . . .  SFR      DATA   U_CHAR   00E5H  1
EADC . . . . . . . . . . . . . . . . .  ABSBIT   -----  BIT      00ADH  1
IE . . . . . . . . . . . . . . . . . .  SFR      DATA   U_CHAR   00A8H  1
IAP_CMD. . . . . . . . . . . . . . . .  SFR      DATA   U_CHAR   00C5H  1
tfont12. . . . . . . . . . . . . . . .  PUBLIC   CODE   ARRAY    33F4H  130
size_t . . . . . . . . . . . . . . . .  TYPEDEF  -----  U_INT    -----  2
DPL1 . . . . . . . . . . . . . . . . .  SFR      DATA   U_CHAR   00E4H  1
tfont32. . . . . . . . . . . . . . . .  PUBLIC   CODE   ARRAY    3692H  650
ADC_RES. . . . . . . . . . . . . . . .  SFR      DATA   U_CHAR   00BDH  1
IP2H . . . . . . . . . . . . . . . . .  SFR      DATA   U_CHAR   00B6H  1
tfont24. . . . . . . . . . . . . . . .  PUBLIC   CODE   ARRAY    3520H  370
IP3H . . . . . . . . . . . . . . . . .  SFR      DATA   U_CHAR   00EEH  1
TA . . . . . . . . . . . . . . . . . .  SFR      DATA   U_CHAR   00AEH  1
tfont16. . . . . . . . . . . . . . . .  PUBLIC   CODE   ARRAY    3476H  170
typFNT_GB12. . . . . . . . . . . . . .  TYPEDEF  -----  STRUCT   -----  26
  Index. . . . . . . . . . . . . . . .  MEMBER   -----  ARRAY    0000H  2
  Msk. . . . . . . . . . . . . . . . .  MEMBER   -----  ARRAY    0002H  24
C51 COMPILER V9.57.0.0   GUI                                                               02/19/2022 23:37:22 PAGE 59  

NAME                                    CLASS   MSPACE  TYPE    OFFSET  SIZE
====                                    =====   ======  ====    ======  ====


uchar. . . . . . . . . . . . . . . . .  TYPEDEF  -----  U_CHAR   -----  1
INTCLKO. . . . . . . . . . . . . . . .  SFR      DATA   U_CHAR   008FH  1
typFNT_GB32. . . . . . . . . . . . . .  TYPEDEF  -----  STRUCT   -----  130
  Index. . . . . . . . . . . . . . . .  MEMBER   -----  ARRAY    0000H  2
  Msk. . . . . . . . . . . . . . . . .  MEMBER   -----  ARRAY    0002H  128
ES . . . . . . . . . . . . . . . . . .  ABSBIT   -----  BIT      00ACH  1
typFNT_GB24. . . . . . . . . . . . . .  TYPEDEF  -----  STRUCT   -----  74
  Index. . . . . . . . . . . . . . . .  MEMBER   -----  ARRAY    0000H  2
  Msk. . . . . . . . . . . . . . . . .  MEMBER   -----  ARRAY    0002H  72
PADC . . . . . . . . . . . . . . . . .  ABSBIT   -----  BIT      00BDH  1
IP . . . . . . . . . . . . . . . . . .  SFR      DATA   U_CHAR   00B8H  1
typFNT_GB16. . . . . . . . . . . . . .  TYPEDEF  -----  STRUCT   -----  34
  Index. . . . . . . . . . . . . . . .  MEMBER   -----  ARRAY    0000H  2
  Msk. . . . . . . . . . . . . . . . .  MEMBER   -----  ARRAY    0002H  32
ADCCFG . . . . . . . . . . . . . . . .  SFR      DATA   U_CHAR   00DEH  1
RI . . . . . . . . . . . . . . . . . .  ABSBIT   -----  BIT      0098H  1
CY . . . . . . . . . . . . . . . . . .  ABSBIT   -----  BIT      00D7H  1
TI . . . . . . . . . . . . . . . . . .  ABSBIT   -----  BIT      0099H  1
IAP_ADDRH. . . . . . . . . . . . . . .  SFR      DATA   U_CHAR   00C3H  1
PS . . . . . . . . . . . . . . . . . .  ABSBIT   -----  BIT      00BCH  1
SP . . . . . . . . . . . . . . . . . .  SFR      DATA   U_CHAR   0081H  1
IAP_ADDRL. . . . . . . . . . . . . . .  SFR      DATA   U_CHAR   00C4H  1
OV . . . . . . . . . . . . . . . . . .  ABSBIT   -----  BIT      00D2H  1
PPCA . . . . . . . . . . . . . . . . .  ABSBIT   -----  BIT      00BFH  1
LIRTRIM. . . . . . . . . . . . . . . .  SFR      DATA   U_CHAR   009EH  1
CMPCR1 . . . . . . . . . . . . . . . .  SFR      DATA   U_CHAR   00E6H  1
ulong. . . . . . . . . . . . . . . . .  TYPEDEF  -----  U_LONG   -----  4
CMPCR2 . . . . . . . . . . . . . . . .  SFR      DATA   U_CHAR   00E7H  1
ushort . . . . . . . . . . . . . . . .  TYPEDEF  -----  U_INT    -----  2
ELVD . . . . . . . . . . . . . . . . .  ABSBIT   -----  BIT      00AEH  1
_GUI_DrawCircle. . . . . . . . . . . .  PUBLIC   CODE   PROC     0000H  -----
  x1 . . . . . . . . . . . . . . . . .  AUTO     DATA   U_INT    0000H  2
  y1 . . . . . . . . . . . . . . . . .  AUTO     DATA   U_INT    0002H  2
  r. . . . . . . . . . . . . . . . . .  AUTO     DATA   U_CHAR   0004H  1
  color. . . . . . . . . . . . . . . .  AUTO     DATA   U_INT    0005H  2
  a. . . . . . . . . . . . . . . . . .  AUTO     XDATA  INT      0000H  2
  b. . . . . . . . . . . . . . . . . .  AUTO     XDATA  INT      0002H  2
u8 . . . . . . . . . . . . . . . . . .  TYPEDEF  -----  U_CHAR   -----  1
_GUI_ShowChinese . . . . . . . . . . .  PUBLIC   CODE   PROC     0000H  -----
  x. . . . . . . . . . . . . . . . . .  AUTO     DATA   U_INT    0000H  2
  y. . . . . . . . . . . . . . . . . .  AUTO     DATA   U_INT    0002H  2
  s. . . . . . . . . . . . . . . . . .  AUTO     DATA   PTR      0004H  3
  fc . . . . . . . . . . . . . . . . .  AUTO     DATA   U_INT    0007H  2
  bc . . . . . . . . . . . . . . . . .  AUTO     DATA   U_INT    0009H  2
  sizey. . . . . . . . . . . . . . . .  AUTO     DATA   U_CHAR   000BH  1
  mode . . . . . . . . . . . . . . . .  AUTO     DATA   U_CHAR   000CH  1
P00. . . . . . . . . . . . . . . . . .  ABSBIT   -----  BIT      0080H  1
ADC_CONTR. . . . . . . . . . . . . . .  SFR      DATA   U_CHAR   00BCH  1
SBUF . . . . . . . . . . . . . . . . .  SFR      DATA   U_CHAR   0099H  1
P10. . . . . . . . . . . . . . . . . .  ABSBIT   -----  BIT      0090H  1
PCON . . . . . . . . . . . . . . . . .  SFR      DATA   U_CHAR   0087H  1
P01. . . . . . . . . . . . . . . . . .  ABSBIT   -----  BIT      0081H  1
P20. . . . . . . . . . . . . . . . . .  ABSBIT   -----  BIT      00A0H  1
P11. . . . . . . . . . . . . . . . . .  ABSBIT   -----  BIT      0091H  1
P02. . . . . . . . . . . . . . . . . .  ABSBIT   -----  BIT      0082H  1
IAP_TPS. . . . . . . . . . . . . . . .  SFR      DATA   U_CHAR   00F5H  1
P30. . . . . . . . . . . . . . . . . .  ABSBIT   -----  BIT      00B0H  1
C51 COMPILER V9.57.0.0   GUI                                                               02/19/2022 23:37:22 PAGE 60  

NAME                                    CLASS   MSPACE  TYPE    OFFSET  SIZE
====                                    =====   ======  ====    ======  ====


P21. . . . . . . . . . . . . . . . . .  ABSBIT   -----  BIT      00A1H  1
P12. . . . . . . . . . . . . . . . . .  ABSBIT   -----  BIT      0092H  1
P03. . . . . . . . . . . . . . . . . .  ABSBIT   -----  BIT      0083H  1
P40. . . . . . . . . . . . . . . . . .  ABSBIT   -----  BIT      00C0H  1
P31. . . . . . . . . . . . . . . . . .  ABSBIT   -----  BIT      00B1H  1
P22. . . . . . . . . . . . . . . . . .  ABSBIT   -----  BIT      00A2H  1
SCON . . . . . . . . . . . . . . . . .  SFR      DATA   U_CHAR   0098H  1
P13. . . . . . . . . . . . . . . . . .  ABSBIT   -----  BIT      0093H  1
P04. . . . . . . . . . . . . . . . . .  ABSBIT   -----  BIT      0084H  1
P50. . . . . . . . . . . . . . . . . .  ABSBIT   -----  BIT      00C8H  1
P41. . . . . . . . . . . . . . . . . .  ABSBIT   -----  BIT      00C1H  1
P32. . . . . . . . . . . . . . . . . .  ABSBIT   -----  BIT      00B2H  1
P23. . . . . . . . . . . . . . . . . .  ABSBIT   -----  BIT      00A3H  1
P14. . . . . . . . . . . . . . . . . .  ABSBIT   -----  BIT      0094H  1
TMOD . . . . . . . . . . . . . . . . .  SFR      DATA   U_CHAR   0089H  1
TCON . . . . . . . . . . . . . . . . .  SFR      DATA   U_CHAR   0088H  1
P05. . . . . . . . . . . . . . . . . .  ABSBIT   -----  BIT      0085H  1
ascii_2412 . . . . . . . . . . . . . .  PUBLIC   CODE   ARRAY    0A64H  4560
ascii_1206 . . . . . . . . . . . . . .  PUBLIC   CODE   ARRAY    0000H  1140
P51. . . . . . . . . . . . . . . . . .  ABSBIT   -----  BIT      00C9H  1
P42. . . . . . . . . . . . . . . . . .  ABSBIT   -----  BIT      00C2H  1
P33. . . . . . . . . . . . . . . . . .  ABSBIT   -----  BIT      00B3H  1
P24. . . . . . . . . . . . . . . . . .  ABSBIT   -----  BIT      00A4H  1
P15. . . . . . . . . . . . . . . . . .  ABSBIT   -----  BIT      0095H  1
P06. . . . . . . . . . . . . . . . . .  ABSBIT   -----  BIT      0086H  1
P52. . . . . . . . . . . . . . . . . .  ABSBIT   -----  BIT      00CAH  1
P43. . . . . . . . . . . . . . . . . .  ABSBIT   -----  BIT      00C3H  1
PLVD . . . . . . . . . . . . . . . . .  ABSBIT   -----  BIT      00BEH  1
P34. . . . . . . . . . . . . . . . . .  ABSBIT   -----  BIT      00B4H  1
P25. . . . . . . . . . . . . . . . . .  ABSBIT   -----  BIT      00A5H  1
P16. . . . . . . . . . . . . . . . . .  ABSBIT   -----  BIT      0096H  1
P07. . . . . . . . . . . . . . . . . .  ABSBIT   -----  BIT      0087H  1
P53. . . . . . . . . . . . . . . . . .  ABSBIT   -----  BIT      00CBH  1
P44. . . . . . . . . . . . . . . . . .  ABSBIT   -----  BIT      00C4H  1
P35. . . . . . . . . . . . . . . . . .  ABSBIT   -----  BIT      00B5H  1
P26. . . . . . . . . . . . . . . . . .  ABSBIT   -----  BIT      00A6H  1
P17. . . . . . . . . . . . . . . . . .  ABSBIT   -----  BIT      0097H  1
ascii_3216 . . . . . . . . . . . . . .  PUBLIC   CODE   ARRAY    1C34H  6080
P54. . . . . . . . . . . . . . . . . .  ABSBIT   -----  BIT      00CCH  1
P45. . . . . . . . . . . . . . . . . .  ABSBIT   -----  BIT      00C5H  1
P36. . . . . . . . . . . . . . . . . .  ABSBIT   -----  BIT      00B6H  1
P27. . . . . . . . . . . . . . . . . .  ABSBIT   -----  BIT      00A7H  1
P55. . . . . . . . . . . . . . . . . .  ABSBIT   -----  BIT      00CDH  1
P46. . . . . . . . . . . . . . . . . .  ABSBIT   -----  BIT      00C6H  1
P37. . . . . . . . . . . . . . . . . .  ABSBIT   -----  BIT      00B7H  1
LCD_DC . . . . . . . . . . . . . . . .  ABSBIT   -----  BIT      00B4H  1
P56. . . . . . . . . . . . . . . . . .  ABSBIT   -----  BIT      00CEH  1
P47. . . . . . . . . . . . . . . . . .  ABSBIT   -----  BIT      00C7H  1
ascii_1608 . . . . . . . . . . . . . .  PUBLIC   CODE   ARRAY    0474H  1520
off. . . . . . . . . . . . . . . . . .  E_CONST  -----  U_CHAR   -----  1
P57. . . . . . . . . . . . . . . . . .  ABSBIT   -----  BIT      00CFH  1
IE0. . . . . . . . . . . . . . . . . .  ABSBIT   -----  BIT      0089H  1
_LCD_Addr_Set. . . . . . . . . . . . .  EXTERN   CODE   PROC     -----  -----
LCDRES . . . . . . . . . . . . . . . .  ABSBIT   -----  BIT      00C0H  1
IE1. . . . . . . . . . . . . . . . . .  ABSBIT   -----  BIT      008BH  1
IE2. . . . . . . . . . . . . . . . . .  SFR      DATA   U_CHAR   00AFH  1
_LCD_Write_Word. . . . . . . . . . . .  EXTERN   CODE   PROC     -----  -----
C51 COMPILER V9.57.0.0   GUI                                                               02/19/2022 23:37:22 PAGE 61  

NAME                                    CLASS   MSPACE  TYPE    OFFSET  SIZE
====                                    =====   ======  ====    ======  ====


B. . . . . . . . . . . . . . . . . . .  SFR      DATA   U_CHAR   00F0H  1
AUXR . . . . . . . . . . . . . . . . .  SFR      DATA   U_CHAR   008EH  1
uint . . . . . . . . . . . . . . . . .  TYPEDEF  -----  U_INT    -----  2
USBADR . . . . . . . . . . . . . . . .  SFR      DATA   U_CHAR   00FCH  1
IAP_CONTR. . . . . . . . . . . . . . .  SFR      DATA   U_CHAR   00C7H  1
USBDAT . . . . . . . . . . . . . . . .  SFR      DATA   U_CHAR   00ECH  1
USBCLK . . . . . . . . . . . . . . . .  SFR      DATA   U_CHAR   00DCH  1
ACC. . . . . . . . . . . . . . . . . .  SFR      DATA   U_CHAR   00E0H  1
ET0. . . . . . . . . . . . . . . . . .  ABSBIT   -----  BIT      00A9H  1
ET1. . . . . . . . . . . . . . . . . .  ABSBIT   -----  BIT      00ABH  1
TF0. . . . . . . . . . . . . . . . . .  ABSBIT   -----  BIT      008DH  1
RSTCFG . . . . . . . . . . . . . . . .  SFR      DATA   U_CHAR   00FFH  1
IP2. . . . . . . . . . . . . . . . . .  SFR      DATA   U_CHAR   00B5H  1
TF1. . . . . . . . . . . . . . . . . .  ABSBIT   -----  BIT      008FH  1
USBCON . . . . . . . . . . . . . . . .  SFR      DATA   U_CHAR   00F4H  1
IP3. . . . . . . . . . . . . . . . . .  SFR      DATA   U_CHAR   00DFH  1
RB8. . . . . . . . . . . . . . . . . .  ABSBIT   -----  BIT      009AH  1
TH0. . . . . . . . . . . . . . . . . .  SFR      DATA   U_CHAR   008CH  1
EX0. . . . . . . . . . . . . . . . . .  ABSBIT   -----  BIT      00A8H  1
TH1. . . . . . . . . . . . . . . . . .  SFR      DATA   U_CHAR   008DH  1
IT0. . . . . . . . . . . . . . . . . .  ABSBIT   -----  BIT      0088H  1
T2H. . . . . . . . . . . . . . . . . .  SFR      DATA   U_CHAR   00D6H  1
EX1. . . . . . . . . . . . . . . . . .  ABSBIT   -----  BIT      00AAH  1
TB8. . . . . . . . . . . . . . . . . .  ABSBIT   -----  BIT      009BH  1
IT1. . . . . . . . . . . . . . . . . .  ABSBIT   -----  BIT      008AH  1
_GUI_Fill. . . . . . . . . . . . . . .  PUBLIC   CODE   PROC     0000H  -----
  x1 . . . . . . . . . . . . . . . . .  AUTO     DATA   U_INT    0000H  2
  y1 . . . . . . . . . . . . . . . . .  AUTO     DATA   U_INT    0002H  2
  x2 . . . . . . . . . . . . . . . . .  AUTO     DATA   U_INT    0004H  2
  y2 . . . . . . . . . . . . . . . . .  AUTO     DATA   U_INT    0006H  2
  color. . . . . . . . . . . . . . . .  AUTO     DATA   U_INT    0008H  2
  i. . . . . . . . . . . . . . . . . .  AUTO     XDATA  U_INT    0000H  2
  j. . . . . . . . . . . . . . . . . .  AUTO     XDATA  U_INT    0002H  2
T3H. . . . . . . . . . . . . . . . . .  SFR      DATA   U_CHAR   00D4H  1
P. . . . . . . . . . . . . . . . . . .  ABSBIT   -----  BIT      00D0H  1
T4H. . . . . . . . . . . . . . . . . .  SFR      DATA   U_CHAR   00D2H  1
SM0. . . . . . . . . . . . . . . . . .  ABSBIT   -----  BIT      009FH  1
TL0. . . . . . . . . . . . . . . . . .  SFR      DATA   U_CHAR   008AH  1
SM1. . . . . . . . . . . . . . . . . .  ABSBIT   -----  BIT      009EH  1
TL1. . . . . . . . . . . . . . . . . .  SFR      DATA   U_CHAR   008BH  1
T2L. . . . . . . . . . . . . . . . . .  SFR      DATA   U_CHAR   00D7H  1
SM2. . . . . . . . . . . . . . . . . .  ABSBIT   -----  BIT      009DH  1
LCD. . . . . . . . . . . . . . . . . .  * TAG *  -----  ENUM     -----  -----
T3L. . . . . . . . . . . . . . . . . .  SFR      DATA   U_CHAR   00D5H  1
T4L. . . . . . . . . . . . . . . . . .  SFR      DATA   U_CHAR   00D3H  1
PT0. . . . . . . . . . . . . . . . . .  ABSBIT   -----  BIT      00B9H  1
RS0. . . . . . . . . . . . . . . . . .  ABSBIT   -----  BIT      00D3H  1
PT1. . . . . . . . . . . . . . . . . .  ABSBIT   -----  BIT      00BBH  1
RS1. . . . . . . . . . . . . . . . . .  ABSBIT   -----  BIT      00D4H  1
IAP_DATA . . . . . . . . . . . . . . .  SFR      DATA   U_CHAR   00C2H  1
TR0. . . . . . . . . . . . . . . . . .  ABSBIT   -----  BIT      008CH  1
TR1. . . . . . . . . . . . . . . . . .  ABSBIT   -----  BIT      008EH  1
WDT_CONTR. . . . . . . . . . . . . . .  SFR      DATA   U_CHAR   00C1H  1
PX0. . . . . . . . . . . . . . . . . .  ABSBIT   -----  BIT      00B8H  1
PX1. . . . . . . . . . . . . . . . . .  ABSBIT   -----  BIT      00BAH  1
IRTRIM . . . . . . . . . . . . . . . .  SFR      DATA   U_CHAR   009FH  1
DPH. . . . . . . . . . . . . . . . . .  SFR      DATA   U_CHAR   0083H  1
C51 COMPILER V9.57.0.0   GUI                                                               02/19/2022 23:37:22 PAGE 62  

NAME                                    CLASS   MSPACE  TYPE    OFFSET  SIZE
====                                    =====   ======  ====    ======  ====


u16. . . . . . . . . . . . . . . . . .  TYPEDEF  -----  U_INT    -----  2
on . . . . . . . . . . . . . . . . . .  E_CONST  -----  U_CHAR   -----  1
T4T3M. . . . . . . . . . . . . . . . .  SFR      DATA   U_CHAR   00D1H  1
ADC_RESL . . . . . . . . . . . . . . .  SFR      DATA   U_CHAR   00BEH  1
DPL. . . . . . . . . . . . . . . . . .  SFR      DATA   U_CHAR   0082H  1
_GUI_DrawLine. . . . . . . . . . . . .  PUBLIC   CODE   PROC     0000H  -----
  x1 . . . . . . . . . . . . . . . . .  AUTO     DATA   U_INT    0000H  2
  y1 . . . . . . . . . . . . . . . . .  AUTO     DATA   U_INT    0004H  2
  x2 . . . . . . . . . . . . . . . . .  AUTO     DATA   U_INT    0002H  2
  y2 . . . . . . . . . . . . . . . . .  AUTO     DATA   U_INT    0006H  2
  color. . . . . . . . . . . . . . . .  AUTO     DATA   U_INT    0008H  2
  t. . . . . . . . . . . . . . . . . .  AUTO     XDATA  U_INT    0000H  2
  xerr . . . . . . . . . . . . . . . .  AUTO     XDATA  INT      0002H  2
  yerr . . . . . . . . . . . . . . . .  AUTO     XDATA  INT      0004H  2
  delta_x. . . . . . . . . . . . . . .  AUTO     XDATA  INT      0006H  2
  delta_y. . . . . . . . . . . . . . .  AUTO     XDATA  INT      0008H  2
  distance . . . . . . . . . . . . . .  AUTO     XDATA  INT      000AH  2
  incx . . . . . . . . . . . . . . . .  AUTO     XDATA  INT      000CH  2
  incy . . . . . . . . . . . . . . . .  AUTO     XDATA  INT      000EH  2
  uRow . . . . . . . . . . . . . . . .  AUTO     XDATA  INT      0010H  2
  uCol . . . . . . . . . . . . . . . .  AUTO     XDATA  INT      0012H  2
SPSTAT . . . . . . . . . . . . . . . .  SFR      DATA   U_CHAR   00CDH  1
IPH. . . . . . . . . . . . . . . . . .  SFR      DATA   U_CHAR   00B7H  1
LCDPOWER . . . . . . . . . . . . . . .  ABSBIT   -----  BIT      00A0H  1
S2BUF. . . . . . . . . . . . . . . . .  SFR      DATA   U_CHAR   009BH  1
_GUI_DrawPoint . . . . . . . . . . . .  PUBLIC   CODE   PROC     0015H  -----
  x1 . . . . . . . . . . . . . . . . .  * REG *  DATA   U_INT    0006H  2
  y1 . . . . . . . . . . . . . . . . .  * REG *  DATA   U_INT    0004H  2
  color. . . . . . . . . . . . . . . .  AUTO     DATA   U_INT    0000H  2
S3BUF. . . . . . . . . . . . . . . . .  SFR      DATA   U_CHAR   00ADH  1
_GUI_ShowString. . . . . . . . . . . .  PUBLIC   CODE   PROC     0000H  -----
  x. . . . . . . . . . . . . . . . . .  AUTO     DATA   U_INT    0000H  2
  y. . . . . . . . . . . . . . . . . .  AUTO     DATA   U_INT    0002H  2
  p. . . . . . . . . . . . . . . . . .  AUTO     DATA   PTR      0004H  3
  fc . . . . . . . . . . . . . . . . .  AUTO     DATA   U_INT    0007H  2
  bc . . . . . . . . . . . . . . . . .  AUTO     DATA   U_INT    0009H  2
  sizey. . . . . . . . . . . . . . . .  AUTO     DATA   U_CHAR   000BH  1
  mode . . . . . . . . . . . . . . . .  AUTO     DATA   U_CHAR   000CH  1
GUI. . . . . . . . . . . . . . . . . .  TYPEDEF  -----  STRUCT   -----  17
  parameter1 . . . . . . . . . . . . .  MEMBER   -----  U_INT    0000H  2
  parameter2 . . . . . . . . . . . . .  MEMBER   -----  U_INT    0002H  2
  parameter3 . . . . . . . . . . . . .  MEMBER   -----  U_INT    0004H  2
  parameter4 . . . . . . . . . . . . .  MEMBER   -----  U_INT    0006H  2
  color. . . . . . . . . . . . . . . .  MEMBER   -----  U_INT    0008H  2
  guifunction. . . . . . . . . . . . .  MEMBER   -----  U_CHAR   000AH  1
  string . . . . . . . . . . . . . . .  MEMBER   -----  PTR      000BH  3
  picture. . . . . . . . . . . . . . .  MEMBER   -----  PTR      000EH  3
REN. . . . . . . . . . . . . . . . . .  ABSBIT   -----  BIT      009CH  1
S4BUF. . . . . . . . . . . . . . . . .  SFR      DATA   U_CHAR   0085H  1
LCDBACK. . . . . . . . . . . . . . . .  ABSBIT   -----  BIT      00A1H  1
S2CON. . . . . . . . . . . . . . . . .  SFR      DATA   U_CHAR   009AH  1
DPS. . . . . . . . . . . . . . . . . .  SFR      DATA   U_CHAR   00E3H  1
S3CON. . . . . . . . . . . . . . . . .  SFR      DATA   U_CHAR   00ACH  1
S4CON. . . . . . . . . . . . . . . . .  SFR      DATA   U_CHAR   0084H  1
LCDCS. . . . . . . . . . . . . . . . .  ABSBIT   -----  BIT      00C9H  1
_GUI_ShowChar. . . . . . . . . . . . .  PUBLIC   CODE   PROC     0000H  -----
  x. . . . . . . . . . . . . . . . . .  AUTO     DATA   U_INT    0000H  2
C51 COMPILER V9.57.0.0   GUI                                                               02/19/2022 23:37:22 PAGE 63  

NAME                                    CLASS   MSPACE  TYPE    OFFSET  SIZE
====                                    =====   ======  ====    ======  ====


  y. . . . . . . . . . . . . . . . . .  AUTO     DATA   U_INT    0002H  2
  num. . . . . . . . . . . . . . . . .  AUTO     DATA   U_CHAR   0004H  1
  fc . . . . . . . . . . . . . . . . .  AUTO     DATA   U_INT    0005H  2
  bc . . . . . . . . . . . . . . . . .  AUTO     DATA   U_INT    0007H  2
  sizey. . . . . . . . . . . . . . . .  AUTO     DATA   U_CHAR   0009H  1
  mode . . . . . . . . . . . . . . . .  AUTO     DATA   U_CHAR   000AH  1
  temp . . . . . . . . . . . . . . . .  AUTO     XDATA  U_CHAR   0000H  1
  sizex. . . . . . . . . . . . . . . .  AUTO     XDATA  U_CHAR   0001H  1
  t. . . . . . . . . . . . . . . . . .  AUTO     XDATA  U_CHAR   0002H  1
  m. . . . . . . . . . . . . . . . . .  AUTO     XDATA  U_CHAR   0003H  1
  i. . . . . . . . . . . . . . . . . .  AUTO     XDATA  U_INT    0004H  2
  TypefaceNum. . . . . . . . . . . . .  AUTO     XDATA  U_INT    0006H  2
  x0 . . . . . . . . . . . . . . . . .  AUTO     XDATA  U_INT    0008H  2
AUXINTIF . . . . . . . . . . . . . . .  SFR      DATA   U_CHAR   00EFH  1
LCDIO. . . . . . . . . . . . . . . . .  TYPEDEF  -----  STRUCT   -----  9
  BACK . . . . . . . . . . . . . . . .  MEMBER   -----  PTR      0000H  3
  POWER. . . . . . . . . . . . . . . .  MEMBER   -----  PTR      0003H  3
  RES. . . . . . . . . . . . . . . . .  MEMBER   -----  PTR      0006H  3
wchar_t. . . . . . . . . . . . . . . .  TYPEDEF  -----  CHAR     -----  1
SADEN. . . . . . . . . . . . . . . . .  SFR      DATA   U_CHAR   00B9H  1
_GUI_ShowChinese12x12. . . . . . . . .  PUBLIC   CODE   PROC     0000H  -----
  x. . . . . . . . . . . . . . . . . .  AUTO     DATA   U_INT    0000H  2
  y. . . . . . . . . . . . . . . . . .  AUTO     DATA   U_INT    0002H  2
  s. . . . . . . . . . . . . . . . . .  AUTO     DATA   PTR      0004H  3
  fc . . . . . . . . . . . . . . . . .  AUTO     DATA   U_INT    0007H  2
  bc . . . . . . . . . . . . . . . . .  AUTO     DATA   U_INT    0009H  2
  sizey. . . . . . . . . . . . . . . .  AUTO     DATA   U_CHAR   000BH  1
  mode . . . . . . . . . . . . . . . .  AUTO     DATA   U_CHAR   000CH  1
  i. . . . . . . . . . . . . . . . . .  AUTO     XDATA  U_CHAR   0000H  1
  j. . . . . . . . . . . . . . . . . .  AUTO     XDATA  U_CHAR   0001H  1
  m. . . . . . . . . . . . . . . . . .  AUTO     XDATA  U_CHAR   0002H  1
  k. . . . . . . . . . . . . . . . . .  AUTO     XDATA  U_INT    0003H  2
  HZnum. . . . . . . . . . . . . . . .  AUTO     XDATA  U_INT    0005H  2
  TypefaceNum. . . . . . . . . . . . .  AUTO     XDATA  U_INT    0007H  2
  x0 . . . . . . . . . . . . . . . . .  AUTO     XDATA  U_INT    0009H  2
GUIStruct. . . . . . . . . . . . . . .  * TAG *  -----  STRUCT   -----  17
  parameter1 . . . . . . . . . . . . .  MEMBER   -----  U_INT    0000H  2
  parameter2 . . . . . . . . . . . . .  MEMBER   -----  U_INT    0002H  2
  parameter3 . . . . . . . . . . . . .  MEMBER   -----  U_INT    0004H  2
  parameter4 . . . . . . . . . . . . .  MEMBER   -----  U_INT    0006H  2
  color. . . . . . . . . . . . . . . .  MEMBER   -----  U_INT    0008H  2
  guifunction. . . . . . . . . . . . .  MEMBER   -----  U_CHAR   000AH  1
  string . . . . . . . . . . . . . . .  MEMBER   -----  PTR      000BH  3
  picture. . . . . . . . . . . . . . .  MEMBER   -----  PTR      000EH  3
SADDR. . . . . . . . . . . . . . . . .  SFR      DATA   U_CHAR   00A9H  1
_GUI_ShowChinese32x32. . . . . . . . .  PUBLIC   CODE   PROC     0000H  -----
  x. . . . . . . . . . . . . . . . . .  AUTO     DATA   U_INT    0000H  2
  y. . . . . . . . . . . . . . . . . .  AUTO     DATA   U_INT    0002H  2
  s. . . . . . . . . . . . . . . . . .  AUTO     DATA   PTR      0004H  3
  fc . . . . . . . . . . . . . . . . .  AUTO     DATA   U_INT    0007H  2
  bc . . . . . . . . . . . . . . . . .  AUTO     DATA   U_INT    0009H  2
  sizey. . . . . . . . . . . . . . . .  AUTO     DATA   U_CHAR   000BH  1
  mode . . . . . . . . . . . . . . . .  AUTO     DATA   U_CHAR   000CH  1
  i. . . . . . . . . . . . . . . . . .  AUTO     XDATA  U_CHAR   0000H  1
  j. . . . . . . . . . . . . . . . . .  AUTO     XDATA  U_CHAR   0001H  1
  m. . . . . . . . . . . . . . . . . .  AUTO     XDATA  U_CHAR   0002H  1
  k. . . . . . . . . . . . . . . . . .  AUTO     XDATA  U_INT    0003H  2
C51 COMPILER V9.57.0.0   GUI                                                               02/19/2022 23:37:22 PAGE 64  

NAME                                    CLASS   MSPACE  TYPE    OFFSET  SIZE
====                                    =====   ======  ====    ======  ====


  HZnum. . . . . . . . . . . . . . . .  AUTO     XDATA  U_INT    0005H  2
  TypefaceNum. . . . . . . . . . . . .  AUTO     XDATA  U_INT    0007H  2
  x0 . . . . . . . . . . . . . . . . .  AUTO     XDATA  U_INT    0009H  2
_GUI_DrawRectangle . . . . . . . . . .  PUBLIC   CODE   PROC     0000H  -----
  x1 . . . . . . . . . . . . . . . . .  AUTO     DATA   U_INT    0000H  2
  y1 . . . . . . . . . . . . . . . . .  AUTO     DATA   U_INT    0002H  2
  x2 . . . . . . . . . . . . . . . . .  AUTO     DATA   U_INT    0004H  2
  y2 . . . . . . . . . . . . . . . . .  AUTO     DATA   U_INT    0006H  2
  color. . . . . . . . . . . . . . . .  AUTO     DATA   U_INT    0008H  2
IAP_TRIG . . . . . . . . . . . . . . .  SFR      DATA   U_CHAR   00C6H  1
_GUI_ShowChinese24x24. . . . . . . . .  PUBLIC   CODE   PROC     0000H  -----
  x. . . . . . . . . . . . . . . . . .  AUTO     DATA   U_INT    0000H  2
  y. . . . . . . . . . . . . . . . . .  AUTO     DATA   U_INT    0002H  2
  s. . . . . . . . . . . . . . . . . .  AUTO     DATA   PTR      0004H  3
  fc . . . . . . . . . . . . . . . . .  AUTO     DATA   U_INT    0007H  2
  bc . . . . . . . . . . . . . . . . .  AUTO     DATA   U_INT    0009H  2
  sizey. . . . . . . . . . . . . . . .  AUTO     DATA   U_CHAR   000BH  1
  mode . . . . . . . . . . . . . . . .  AUTO     DATA   U_CHAR   000CH  1
  i. . . . . . . . . . . . . . . . . .  AUTO     XDATA  U_CHAR   0000H  1
  j. . . . . . . . . . . . . . . . . .  AUTO     XDATA  U_CHAR   0001H  1
  m. . . . . . . . . . . . . . . . . .  AUTO     XDATA  U_CHAR   0002H  1
  k. . . . . . . . . . . . . . . . . .  AUTO     XDATA  U_INT    0003H  2
  HZnum. . . . . . . . . . . . . . . .  AUTO     XDATA  U_INT    0005H  2
  TypefaceNum. . . . . . . . . . . . .  AUTO     XDATA  U_INT    0007H  2
  x0 . . . . . . . . . . . . . . . . .  AUTO     XDATA  U_INT    0009H  2
F0 . . . . . . . . . . . . . . . . . .  ABSBIT   -----  BIT      00D5H  1
IRCBAND. . . . . . . . . . . . . . . .  SFR      DATA   U_CHAR   009DH  1
_GUI_ShowChinese16x16. . . . . . . . .  PUBLIC   CODE   PROC     0000H  -----
  x. . . . . . . . . . . . . . . . . .  AUTO     DATA   U_INT    0000H  2
  y. . . . . . . . . . . . . . . . . .  AUTO     DATA   U_INT    0002H  2
  s. . . . . . . . . . . . . . . . . .  AUTO     DATA   PTR      0004H  3
  fc . . . . . . . . . . . . . . . . .  AUTO     DATA   U_INT    0007H  2
  bc . . . . . . . . . . . . . . . . .  AUTO     DATA   U_INT    0009H  2
  sizey. . . . . . . . . . . . . . . .  AUTO     DATA   U_CHAR   000BH  1
  mode . . . . . . . . . . . . . . . .  AUTO     DATA   U_CHAR   000CH  1
  i. . . . . . . . . . . . . . . . . .  AUTO     XDATA  U_CHAR   0000H  1
  j. . . . . . . . . . . . . . . . . .  AUTO     XDATA  U_CHAR   0001H  1
  m. . . . . . . . . . . . . . . . . .  AUTO     XDATA  U_CHAR   0002H  1
  k. . . . . . . . . . . . . . . . . .  AUTO     XDATA  U_INT    0003H  2
  HZnum. . . . . . . . . . . . . . . .  AUTO     XDATA  U_INT    0005H  2
  TypefaceNum. . . . . . . . . . . . .  AUTO     XDATA  U_INT    0007H  2
  x0 . . . . . . . . . . . . . . . . .  AUTO     XDATA  U_INT    0009H  2
F1 . . . . . . . . . . . . . . . . . .  ABSBIT   -----  BIT      00D1H  1
PSW. . . . . . . . . . . . . . . . . .  SFR      DATA   U_CHAR   00D0H  1
GUIMenu. . . . . . . . . . . . . . . .  TYPEDEF  -----  STRUCT   -----  17
  Parent . . . . . . . . . . . . . . .  MEMBER   -----  PTR      0000H  3
  MenuLurrentLevel . . . . . . . . . .  MEMBER   -----  PTR      0003H  3
  ChildNext. . . . . . . . . . . . . .  MEMBER   -----  PTR      0006H  3
  _menuLevel . . . . . . . . . . . . .  MEMBER   -----  U_CHAR   0009H  1
  _location. . . . . . . . . . . . . .  MEMBER   -----  U_CHAR   000AH  1
  _name. . . . . . . . . . . . . . . .  MEMBER   -----  PTR      000BH  3
  function . . . . . . . . . . . . . .  MEMBER   -----  PTR      000EH  3
SPDAT. . . . . . . . . . . . . . . . .  SFR      DATA   U_CHAR   00CFH  1
P0M0 . . . . . . . . . . . . . . . . .  SFR      DATA   U_CHAR   0094H  1


MODULE INFORMATION:   STATIC OVERLAYABLE
   CODE SIZE        =   4160    ----
C51 COMPILER V9.57.0.0   GUI                                                               02/19/2022 23:37:22 PAGE 65  

   CONSTANT SIZE    =  14620    ----
   XDATA SIZE       =   ----      82
   PDATA SIZE       =   ----    ----
   DATA SIZE        =   ----     128
   IDATA SIZE       =   ----    ----
   BIT SIZE         =   ----    ----
   EDATA SIZE       =   ----    ----
   HDATA SIZE       =   ----    ----
   XDATA CONST SIZE =   ----    ----
   FAR CONST SIZE   =   ----    ----
END OF MODULE INFORMATION.


C51 COMPILATION COMPLETE.  0 WARNING(S),  0 ERROR(S)
